(lp1
(dp2
S'n_forests'
p3
I150
sS'max_depth'
p4
I3
sS'weight_extent'
p5
I1
sS'n_trees'
p6
I1
sS'k'
I4
sS'eig_extent'
p7
I0
sS'n_features_to_predict'
p8
F0.5
sa(dp9
g3
I150
sg4
I3
sg5
F1.5
sg6
I1
sS'k'
I4
sg7
I0
sg8
F0.5
sa(dp10
g3
I150
sg4
I3
sg5
I2
sg6
I1
sS'k'
I4
sg7
I0
sg8
F0.5
sa(dp11
g3
I150
sg4
I3
sg5
F2.5
sg6
I1
sS'k'
I4
sg7
I0
sg8
F0.5
sa(dp12
g3
I150
sg4
I3
sg5
I1
sg6
I1
sS'k'
I6
sg7
I0
sg8
F0.5
sa(dp13
g3
I150
sg4
I3
sg5
F1.5
sg6
I1
sS'k'
I6
sg7
I0
sg8
F0.5
sa(dp14
g3
I150
sg4
I3
sg5
I2
sg6
I1
sS'k'
I6
sg7
I0
sg8
F0.5
sa(dp15
g3
I150
sg4
I3
sg5
F2.5
sg6
I1
sS'k'
I6
sg7
I0
sg8
F0.5
sa(dp16
g3
I150
sg4
I3
sg5
I1
sg6
I1
sS'k'
I7
sg7
I0
sg8
F0.5
sa(dp17
g3
I150
sg4
I3
sg5
F1.5
sg6
I1
sS'k'
I7
sg7
I0
sg8
F0.5
sa(dp18
g3
I150
sg4
I3
sg5
I2
sg6
I1
sS'k'
I7
sg7
I0
sg8
F0.5
sa(dp19
g3
I150
sg4
I3
sg5
F2.5
sg6
I1
sS'k'
I7
sg7
I0
sg8
F0.5
sa(dp20
g3
I150
sg4
I3
sg5
I1
sg6
I1
sS'k'
I4
sg7
I3
sg8
F0.5
sa(dp21
g3
I150
sg4
I3
sg5
F1.5
sg6
I1
sS'k'
I4
sg7
I3
sg8
F0.5
sa(dp22
g3
I150
sg4
I3
sg5
I2
sg6
I1
sS'k'
I4
sg7
I3
sg8
F0.5
sa(dp23
g3
I150
sg4
I3
sg5
F2.5
sg6
I1
sS'k'
I4
sg7
I3
sg8
F0.5
sa(dp24
g3
I150
sg4
I3
sg5
I1
sg6
I1
sS'k'
I6
sg7
I3
sg8
F0.5
sa(dp25
g3
I150
sg4
I3
sg5
F1.5
sg6
I1
sS'k'
I6
sg7
I3
sg8
F0.5
sa(dp26
g3
I150
sg4
I3
sg5
I2
sg6
I1
sS'k'
I6
sg7
I3
sg8
F0.5
sa(dp27
g3
I150
sg4
I3
sg5
F2.5
sg6
I1
sS'k'
I6
sg7
I3
sg8
F0.5
sa(dp28
g3
I150
sg4
I3
sg5
I1
sg6
I1
sS'k'
I7
sg7
I3
sg8
F0.5
sa(dp29
g3
I150
sg4
I3
sg5
F1.5
sg6
I1
sS'k'
I7
sg7
I3
sg8
F0.5
sa(dp30
g3
I150
sg4
I3
sg5
I2
sg6
I1
sS'k'
I7
sg7
I3
sg8
F0.5
sa(dp31
g3
I150
sg4
I3
sg5
F2.5
sg6
I1
sS'k'
I7
sg7
I3
sg8
F0.5
sa(dp32
g3
I150
sg4
I3
sg5
I1
sg6
I1
sS'k'
I4
sg7
I6
sg8
F0.5
sa(dp33
g3
I150
sg4
I3
sg5
F1.5
sg6
I1
sS'k'
I4
sg7
I6
sg8
F0.5
sa(dp34
g3
I150
sg4
I3
sg5
I2
sg6
I1
sS'k'
I4
sg7
I6
sg8
F0.5
sa(dp35
g3
I150
sg4
I3
sg5
F2.5
sg6
I1
sS'k'
I4
sg7
I6
sg8
F0.5
sa(dp36
g3
I150
sg4
I3
sg5
I1
sg6
I1
sS'k'
I6
sg7
I6
sg8
F0.5
sa(dp37
g3
I150
sg4
I3
sg5
F1.5
sg6
I1
sS'k'
I6
sg7
I6
sg8
F0.5
sa(dp38
g3
I150
sg4
I3
sg5
I2
sg6
I1
sS'k'
I6
sg7
I6
sg8
F0.5
sa(dp39
g3
I150
sg4
I3
sg5
F2.5
sg6
I1
sS'k'
I6
sg7
I6
sg8
F0.5
sa(dp40
g3
I150
sg4
I3
sg5
I1
sg6
I1
sS'k'
I7
sg7
I6
sg8
F0.5
sa(dp41
g3
I150
sg4
I3
sg5
F1.5
sg6
I1
sS'k'
I7
sg7
I6
sg8
F0.5
sa(dp42
g3
I150
sg4
I3
sg5
I2
sg6
I1
sS'k'
I7
sg7
I6
sg8
F0.5
sa(dp43
g3
I150
sg4
I3
sg5
F2.5
sg6
I1
sS'k'
I7
sg7
I6
sg8
F0.5
sa(dp44
g3
I150
sg4
I3
sg5
I1
sg6
I1
sS'k'
I4
sg7
I10
sg8
F0.5
sa(dp45
g3
I150
sg4
I3
sg5
F1.5
sg6
I1
sS'k'
I4
sg7
I10
sg8
F0.5
sa(dp46
g3
I150
sg4
I3
sg5
I2
sg6
I1
sS'k'
I4
sg7
I10
sg8
F0.5
sa(dp47
g3
I150
sg4
I3
sg5
F2.5
sg6
I1
sS'k'
I4
sg7
I10
sg8
F0.5
sa(dp48
g3
I150
sg4
I3
sg5
I1
sg6
I1
sS'k'
I6
sg7
I10
sg8
F0.5
sa(dp49
g3
I150
sg4
I3
sg5
F1.5
sg6
I1
sS'k'
I6
sg7
I10
sg8
F0.5
sa(dp50
g3
I150
sg4
I3
sg5
I2
sg6
I1
sS'k'
I6
sg7
I10
sg8
F0.5
sa(dp51
g3
I150
sg4
I3
sg5
F2.5
sg6
I1
sS'k'
I6
sg7
I10
sg8
F0.5
sa(dp52
g3
I150
sg4
I3
sg5
I1
sg6
I1
sS'k'
I7
sg7
I10
sg8
F0.5
sa(dp53
g3
I150
sg4
I3
sg5
F1.5
sg6
I1
sS'k'
I7
sg7
I10
sg8
F0.5
sa(dp54
g3
I150
sg4
I3
sg5
I2
sg6
I1
sS'k'
I7
sg7
I10
sg8
F0.5
sa(dp55
g3
I150
sg4
I3
sg5
F2.5
sg6
I1
sS'k'
I7
sg7
I10
sg8
F0.5
sa(dp56
g3
I150
sg4
I5
sg5
I1
sg6
I1
sS'k'
I4
sg7
I0
sg8
F0.5
sa(dp57
g3
I150
sg4
I5
sg5
F1.5
sg6
I1
sS'k'
I4
sg7
I0
sg8
F0.5
sa(dp58
g3
I150
sg4
I5
sg5
I2
sg6
I1
sS'k'
I4
sg7
I0
sg8
F0.5
sa(dp59
g3
I150
sg4
I5
sg5
F2.5
sg6
I1
sS'k'
I4
sg7
I0
sg8
F0.5
sa(dp60
g3
I150
sg4
I5
sg5
I1
sg6
I1
sS'k'
I6
sg7
I0
sg8
F0.5
sa(dp61
g3
I150
sg4
I5
sg5
F1.5
sg6
I1
sS'k'
I6
sg7
I0
sg8
F0.5
sa(dp62
g3
I150
sg4
I5
sg5
I2
sg6
I1
sS'k'
I6
sg7
I0
sg8
F0.5
sa(dp63
g3
I150
sg4
I5
sg5
F2.5
sg6
I1
sS'k'
I6
sg7
I0
sg8
F0.5
sa(dp64
g3
I150
sg4
I5
sg5
I1
sg6
I1
sS'k'
I7
sg7
I0
sg8
F0.5
sa(dp65
g3
I150
sg4
I5
sg5
F1.5
sg6
I1
sS'k'
I7
sg7
I0
sg8
F0.5
sa(dp66
g3
I150
sg4
I5
sg5
I2
sg6
I1
sS'k'
I7
sg7
I0
sg8
F0.5
sa(dp67
g3
I150
sg4
I5
sg5
F2.5
sg6
I1
sS'k'
I7
sg7
I0
sg8
F0.5
sa(dp68
g3
I150
sg4
I5
sg5
I1
sg6
I1
sS'k'
I4
sg7
I3
sg8
F0.5
sa(dp69
g3
I150
sg4
I5
sg5
F1.5
sg6
I1
sS'k'
I4
sg7
I3
sg8
F0.5
sa(dp70
g3
I150
sg4
I5
sg5
I2
sg6
I1
sS'k'
I4
sg7
I3
sg8
F0.5
sa(dp71
g3
I150
sg4
I5
sg5
F2.5
sg6
I1
sS'k'
I4
sg7
I3
sg8
F0.5
sa(dp72
g3
I150
sg4
I5
sg5
I1
sg6
I1
sS'k'
I6
sg7
I3
sg8
F0.5
sa(dp73
g3
I150
sg4
I5
sg5
F1.5
sg6
I1
sS'k'
I6
sg7
I3
sg8
F0.5
sa(dp74
g3
I150
sg4
I5
sg5
I2
sg6
I1
sS'k'
I6
sg7
I3
sg8
F0.5
sa(dp75
g3
I150
sg4
I5
sg5
F2.5
sg6
I1
sS'k'
I6
sg7
I3
sg8
F0.5
sa(dp76
g3
I150
sg4
I5
sg5
I1
sg6
I1
sS'k'
I7
sg7
I3
sg8
F0.5
sa(dp77
g3
I150
sg4
I5
sg5
F1.5
sg6
I1
sS'k'
I7
sg7
I3
sg8
F0.5
sa(dp78
g3
I150
sg4
I5
sg5
I2
sg6
I1
sS'k'
I7
sg7
I3
sg8
F0.5
sa(dp79
g3
I150
sg4
I5
sg5
F2.5
sg6
I1
sS'k'
I7
sg7
I3
sg8
F0.5
sa(dp80
g3
I150
sg4
I5
sg5
I1
sg6
I1
sS'k'
I4
sg7
I6
sg8
F0.5
sa(dp81
g3
I150
sg4
I5
sg5
F1.5
sg6
I1
sS'k'
I4
sg7
I6
sg8
F0.5
sa(dp82
g3
I150
sg4
I5
sg5
I2
sg6
I1
sS'k'
I4
sg7
I6
sg8
F0.5
sa(dp83
g3
I150
sg4
I5
sg5
F2.5
sg6
I1
sS'k'
I4
sg7
I6
sg8
F0.5
sa(dp84
g3
I150
sg4
I5
sg5
I1
sg6
I1
sS'k'
I6
sg7
I6
sg8
F0.5
sa(dp85
g3
I150
sg4
I5
sg5
F1.5
sg6
I1
sS'k'
I6
sg7
I6
sg8
F0.5
sa(dp86
g3
I150
sg4
I5
sg5
I2
sg6
I1
sS'k'
I6
sg7
I6
sg8
F0.5
sa(dp87
g3
I150
sg4
I5
sg5
F2.5
sg6
I1
sS'k'
I6
sg7
I6
sg8
F0.5
sa(dp88
g3
I150
sg4
I5
sg5
I1
sg6
I1
sS'k'
I7
sg7
I6
sg8
F0.5
sa(dp89
g3
I150
sg4
I5
sg5
F1.5
sg6
I1
sS'k'
I7
sg7
I6
sg8
F0.5
sa(dp90
g3
I150
sg4
I5
sg5
I2
sg6
I1
sS'k'
I7
sg7
I6
sg8
F0.5
sa(dp91
g3
I150
sg4
I5
sg5
F2.5
sg6
I1
sS'k'
I7
sg7
I6
sg8
F0.5
sa(dp92
g3
I150
sg4
I5
sg5
I1
sg6
I1
sS'k'
I4
sg7
I10
sg8
F0.5
sa(dp93
g3
I150
sg4
I5
sg5
F1.5
sg6
I1
sS'k'
I4
sg7
I10
sg8
F0.5
sa(dp94
g3
I150
sg4
I5
sg5
I2
sg6
I1
sS'k'
I4
sg7
I10
sg8
F0.5
sa(dp95
g3
I150
sg4
I5
sg5
F2.5
sg6
I1
sS'k'
I4
sg7
I10
sg8
F0.5
sa(dp96
g3
I150
sg4
I5
sg5
I1
sg6
I1
sS'k'
I6
sg7
I10
sg8
F0.5
sa(dp97
g3
I150
sg4
I5
sg5
F1.5
sg6
I1
sS'k'
I6
sg7
I10
sg8
F0.5
sa(dp98
g3
I150
sg4
I5
sg5
I2
sg6
I1
sS'k'
I6
sg7
I10
sg8
F0.5
sa(dp99
g3
I150
sg4
I5
sg5
F2.5
sg6
I1
sS'k'
I6
sg7
I10
sg8
F0.5
sa(dp100
g3
I150
sg4
I5
sg5
I1
sg6
I1
sS'k'
I7
sg7
I10
sg8
F0.5
sa(dp101
g3
I150
sg4
I5
sg5
F1.5
sg6
I1
sS'k'
I7
sg7
I10
sg8
F0.5
sa(dp102
g3
I150
sg4
I5
sg5
I2
sg6
I1
sS'k'
I7
sg7
I10
sg8
F0.5
sa(dp103
g3
I150
sg4
I5
sg5
F2.5
sg6
I1
sS'k'
I7
sg7
I10
sg8
F0.5
sa(dp104
g3
I150
sg4
I8
sg5
I1
sg6
I1
sS'k'
I4
sg7
I0
sg8
F0.5
sa(dp105
g3
I150
sg4
I8
sg5
F1.5
sg6
I1
sS'k'
I4
sg7
I0
sg8
F0.5
sa(dp106
g3
I150
sg4
I8
sg5
I2
sg6
I1
sS'k'
I4
sg7
I0
sg8
F0.5
sa(dp107
g3
I150
sg4
I8
sg5
F2.5
sg6
I1
sS'k'
I4
sg7
I0
sg8
F0.5
sa(dp108
g3
I150
sg4
I8
sg5
I1
sg6
I1
sS'k'
I6
sg7
I0
sg8
F0.5
sa(dp109
g3
I150
sg4
I8
sg5
F1.5
sg6
I1
sS'k'
I6
sg7
I0
sg8
F0.5
sa(dp110
g3
I150
sg4
I8
sg5
I2
sg6
I1
sS'k'
I6
sg7
I0
sg8
F0.5
sa(dp111
g3
I150
sg4
I8
sg5
F2.5
sg6
I1
sS'k'
I6
sg7
I0
sg8
F0.5
sa(dp112
g3
I150
sg4
I8
sg5
I1
sg6
I1
sS'k'
I7
sg7
I0
sg8
F0.5
sa(dp113
g3
I150
sg4
I8
sg5
F1.5
sg6
I1
sS'k'
I7
sg7
I0
sg8
F0.5
sa(dp114
g3
I150
sg4
I8
sg5
I2
sg6
I1
sS'k'
I7
sg7
I0
sg8
F0.5
sa(dp115
g3
I150
sg4
I8
sg5
F2.5
sg6
I1
sS'k'
I7
sg7
I0
sg8
F0.5
sa(dp116
g3
I150
sg4
I8
sg5
I1
sg6
I1
sS'k'
I4
sg7
I3
sg8
F0.5
sa(dp117
g3
I150
sg4
I8
sg5
F1.5
sg6
I1
sS'k'
I4
sg7
I3
sg8
F0.5
sa(dp118
g3
I150
sg4
I8
sg5
I2
sg6
I1
sS'k'
I4
sg7
I3
sg8
F0.5
sa(dp119
g3
I150
sg4
I8
sg5
F2.5
sg6
I1
sS'k'
I4
sg7
I3
sg8
F0.5
sa(dp120
g3
I150
sg4
I8
sg5
I1
sg6
I1
sS'k'
I6
sg7
I3
sg8
F0.5
sa(dp121
g3
I150
sg4
I8
sg5
F1.5
sg6
I1
sS'k'
I6
sg7
I3
sg8
F0.5
sa(dp122
g3
I150
sg4
I8
sg5
I2
sg6
I1
sS'k'
I6
sg7
I3
sg8
F0.5
sa(dp123
g3
I150
sg4
I8
sg5
F2.5
sg6
I1
sS'k'
I6
sg7
I3
sg8
F0.5
sa(dp124
g3
I150
sg4
I8
sg5
I1
sg6
I1
sS'k'
I7
sg7
I3
sg8
F0.5
sa(dp125
g3
I150
sg4
I8
sg5
F1.5
sg6
I1
sS'k'
I7
sg7
I3
sg8
F0.5
sa(dp126
g3
I150
sg4
I8
sg5
I2
sg6
I1
sS'k'
I7
sg7
I3
sg8
F0.5
sa(dp127
g3
I150
sg4
I8
sg5
F2.5
sg6
I1
sS'k'
I7
sg7
I3
sg8
F0.5
sa(dp128
g3
I150
sg4
I8
sg5
I1
sg6
I1
sS'k'
I4
sg7
I6
sg8
F0.5
sa(dp129
g3
I150
sg4
I8
sg5
F1.5
sg6
I1
sS'k'
I4
sg7
I6
sg8
F0.5
sa(dp130
g3
I150
sg4
I8
sg5
I2
sg6
I1
sS'k'
I4
sg7
I6
sg8
F0.5
sa(dp131
g3
I150
sg4
I8
sg5
F2.5
sg6
I1
sS'k'
I4
sg7
I6
sg8
F0.5
sa(dp132
g3
I150
sg4
I8
sg5
I1
sg6
I1
sS'k'
I6
sg7
I6
sg8
F0.5
sa(dp133
g3
I150
sg4
I8
sg5
F1.5
sg6
I1
sS'k'
I6
sg7
I6
sg8
F0.5
sa(dp134
g3
I150
sg4
I8
sg5
I2
sg6
I1
sS'k'
I6
sg7
I6
sg8
F0.5
sa(dp135
g3
I150
sg4
I8
sg5
F2.5
sg6
I1
sS'k'
I6
sg7
I6
sg8
F0.5
sa(dp136
g3
I150
sg4
I8
sg5
I1
sg6
I1
sS'k'
I7
sg7
I6
sg8
F0.5
sa(dp137
g3
I150
sg4
I8
sg5
F1.5
sg6
I1
sS'k'
I7
sg7
I6
sg8
F0.5
sa(dp138
g3
I150
sg4
I8
sg5
I2
sg6
I1
sS'k'
I7
sg7
I6
sg8
F0.5
sa(dp139
g3
I150
sg4
I8
sg5
F2.5
sg6
I1
sS'k'
I7
sg7
I6
sg8
F0.5
sa(dp140
g3
I150
sg4
I8
sg5
I1
sg6
I1
sS'k'
I4
sg7
I10
sg8
F0.5
sa(dp141
g3
I150
sg4
I8
sg5
F1.5
sg6
I1
sS'k'
I4
sg7
I10
sg8
F0.5
sa(dp142
g3
I150
sg4
I8
sg5
I2
sg6
I1
sS'k'
I4
sg7
I10
sg8
F0.5
sa(dp143
g3
I150
sg4
I8
sg5
F2.5
sg6
I1
sS'k'
I4
sg7
I10
sg8
F0.5
sa(dp144
g3
I150
sg4
I8
sg5
I1
sg6
I1
sS'k'
I6
sg7
I10
sg8
F0.5
sa(dp145
g3
I150
sg4
I8
sg5
F1.5
sg6
I1
sS'k'
I6
sg7
I10
sg8
F0.5
sa(dp146
g3
I150
sg4
I8
sg5
I2
sg6
I1
sS'k'
I6
sg7
I10
sg8
F0.5
sa(dp147
g3
I150
sg4
I8
sg5
F2.5
sg6
I1
sS'k'
I6
sg7
I10
sg8
F0.5
sa(dp148
g3
I150
sg4
I8
sg5
I1
sg6
I1
sS'k'
I7
sg7
I10
sg8
F0.5
sa(dp149
g3
I150
sg4
I8
sg5
F1.5
sg6
I1
sS'k'
I7
sg7
I10
sg8
F0.5
sa(dp150
g3
I150
sg4
I8
sg5
I2
sg6
I1
sS'k'
I7
sg7
I10
sg8
F0.5
sa(dp151
g3
I150
sg4
I8
sg5
F2.5
sg6
I1
sS'k'
I7
sg7
I10
sg8
F0.5
sa(dp152
g3
I150
sg4
I10
sg5
I1
sg6
I1
sS'k'
I4
sg7
I0
sg8
F0.5
sa(dp153
g3
I150
sg4
I10
sg5
F1.5
sg6
I1
sS'k'
I4
sg7
I0
sg8
F0.5
sa(dp154
g3
I150
sg4
I10
sg5
I2
sg6
I1
sS'k'
I4
sg7
I0
sg8
F0.5
sa(dp155
g3
I150
sg4
I10
sg5
F2.5
sg6
I1
sS'k'
I4
sg7
I0
sg8
F0.5
sa(dp156
g3
I150
sg4
I10
sg5
I1
sg6
I1
sS'k'
I6
sg7
I0
sg8
F0.5
sa(dp157
g3
I150
sg4
I10
sg5
F1.5
sg6
I1
sS'k'
I6
sg7
I0
sg8
F0.5
sa(dp158
g3
I150
sg4
I10
sg5
I2
sg6
I1
sS'k'
I6
sg7
I0
sg8
F0.5
sa(dp159
g3
I150
sg4
I10
sg5
F2.5
sg6
I1
sS'k'
I6
sg7
I0
sg8
F0.5
sa(dp160
g3
I150
sg4
I10
sg5
I1
sg6
I1
sS'k'
I7
sg7
I0
sg8
F0.5
sa(dp161
g3
I150
sg4
I10
sg5
F1.5
sg6
I1
sS'k'
I7
sg7
I0
sg8
F0.5
sa(dp162
g3
I150
sg4
I10
sg5
I2
sg6
I1
sS'k'
I7
sg7
I0
sg8
F0.5
sa(dp163
g3
I150
sg4
I10
sg5
F2.5
sg6
I1
sS'k'
I7
sg7
I0
sg8
F0.5
sa(dp164
g3
I150
sg4
I10
sg5
I1
sg6
I1
sS'k'
I4
sg7
I3
sg8
F0.5
sa(dp165
g3
I150
sg4
I10
sg5
F1.5
sg6
I1
sS'k'
I4
sg7
I3
sg8
F0.5
sa(dp166
g3
I150
sg4
I10
sg5
I2
sg6
I1
sS'k'
I4
sg7
I3
sg8
F0.5
sa(dp167
g3
I150
sg4
I10
sg5
F2.5
sg6
I1
sS'k'
I4
sg7
I3
sg8
F0.5
sa(dp168
g3
I150
sg4
I10
sg5
I1
sg6
I1
sS'k'
I6
sg7
I3
sg8
F0.5
sa(dp169
g3
I150
sg4
I10
sg5
F1.5
sg6
I1
sS'k'
I6
sg7
I3
sg8
F0.5
sa(dp170
g3
I150
sg4
I10
sg5
I2
sg6
I1
sS'k'
I6
sg7
I3
sg8
F0.5
sa(dp171
g3
I150
sg4
I10
sg5
F2.5
sg6
I1
sS'k'
I6
sg7
I3
sg8
F0.5
sa(dp172
g3
I150
sg4
I10
sg5
I1
sg6
I1
sS'k'
I7
sg7
I3
sg8
F0.5
sa(dp173
g3
I150
sg4
I10
sg5
F1.5
sg6
I1
sS'k'
I7
sg7
I3
sg8
F0.5
sa(dp174
g3
I150
sg4
I10
sg5
I2
sg6
I1
sS'k'
I7
sg7
I3
sg8
F0.5
sa(dp175
g3
I150
sg4
I10
sg5
F2.5
sg6
I1
sS'k'
I7
sg7
I3
sg8
F0.5
sa(dp176
g3
I150
sg4
I10
sg5
I1
sg6
I1
sS'k'
I4
sg7
I6
sg8
F0.5
sa(dp177
g3
I150
sg4
I10
sg5
F1.5
sg6
I1
sS'k'
I4
sg7
I6
sg8
F0.5
sa(dp178
g3
I150
sg4
I10
sg5
I2
sg6
I1
sS'k'
I4
sg7
I6
sg8
F0.5
sa(dp179
g3
I150
sg4
I10
sg5
F2.5
sg6
I1
sS'k'
I4
sg7
I6
sg8
F0.5
sa(dp180
g3
I150
sg4
I10
sg5
I1
sg6
I1
sS'k'
I6
sg7
I6
sg8
F0.5
sa(dp181
g3
I150
sg4
I10
sg5
F1.5
sg6
I1
sS'k'
I6
sg7
I6
sg8
F0.5
sa(dp182
g3
I150
sg4
I10
sg5
I2
sg6
I1
sS'k'
I6
sg7
I6
sg8
F0.5
sa(dp183
g3
I150
sg4
I10
sg5
F2.5
sg6
I1
sS'k'
I6
sg7
I6
sg8
F0.5
sa(dp184
g3
I150
sg4
I10
sg5
I1
sg6
I1
sS'k'
I7
sg7
I6
sg8
F0.5
sa(dp185
g3
I150
sg4
I10
sg5
F1.5
sg6
I1
sS'k'
I7
sg7
I6
sg8
F0.5
sa(dp186
g3
I150
sg4
I10
sg5
I2
sg6
I1
sS'k'
I7
sg7
I6
sg8
F0.5
sa(dp187
g3
I150
sg4
I10
sg5
F2.5
sg6
I1
sS'k'
I7
sg7
I6
sg8
F0.5
sa(dp188
g3
I150
sg4
I10
sg5
I1
sg6
I1
sS'k'
I4
sg7
I10
sg8
F0.5
sa(dp189
g3
I150
sg4
I10
sg5
F1.5
sg6
I1
sS'k'
I4
sg7
I10
sg8
F0.5
sa(dp190
g3
I150
sg4
I10
sg5
I2
sg6
I1
sS'k'
I4
sg7
I10
sg8
F0.5
sa(dp191
g3
I150
sg4
I10
sg5
F2.5
sg6
I1
sS'k'
I4
sg7
I10
sg8
F0.5
sa(dp192
g3
I150
sg4
I10
sg5
I1
sg6
I1
sS'k'
I6
sg7
I10
sg8
F0.5
sa(dp193
g3
I150
sg4
I10
sg5
F1.5
sg6
I1
sS'k'
I6
sg7
I10
sg8
F0.5
sa(dp194
g3
I150
sg4
I10
sg5
I2
sg6
I1
sS'k'
I6
sg7
I10
sg8
F0.5
sa(dp195
g3
I150
sg4
I10
sg5
F2.5
sg6
I1
sS'k'
I6
sg7
I10
sg8
F0.5
sa(dp196
g3
I150
sg4
I10
sg5
I1
sg6
I1
sS'k'
I7
sg7
I10
sg8
F0.5
sa(dp197
g3
I150
sg4
I10
sg5
F1.5
sg6
I1
sS'k'
I7
sg7
I10
sg8
F0.5
sa(dp198
g3
I150
sg4
I10
sg5
I2
sg6
I1
sS'k'
I7
sg7
I10
sg8
F0.5
sa(dp199
g3
I150
sg4
I10
sg5
F2.5
sg6
I1
sS'k'
I7
sg7
I10
sg8
F0.5
sa.