(lp1
(S'boston'
(dp2
S'n_forests'
p3
I100
sS'n_jobs'
p4
I-1
sS'weight_extent'
p5
F0.5
sS'n_trees'
p6
I1
sS'k'
I2
sS'n_features_to_predict'
p7
F0.5
sS'kmeans_type'
p8
S'squishy'
p9
sS'max_depth'
p10
I4
scnumpy.core.multiarray
scalar
p11
(cnumpy
dtype
p12
(S'f8'
I0
I1
tRp13
(I3
S'<'
NNNI-1
I-1
I0
tbS'\xdb\x10\xf7=\x02g\xeb?'
tRp14
g11
(g13
S'\x00\x00\x00\x00\x00\x00\x00@'
tRp15
tp16
a(S'diabetes'
(dp17
S'n_forests'
p18
I100
sS'n_jobs'
p19
I-1
sS'weight_extent'
p20
F0.5
sS'n_trees'
p21
I1
sS'k'
I2
sS'n_features_to_predict'
p22
F0.5
sS'kmeans_type'
p23
S'squishy'
p24
sS'max_depth'
p25
I4
sg11
(g13
S'\xd8?\x06\xe2<4\xed?'
tRp26
g11
(g13
S'\x00\x00\x00\x00\x00\x00\x00@'
tRp27
tp28
a(S'iris'
(dp29
S'n_forests'
p30
I100
sS'n_jobs'
p31
I-1
sS'weight_extent'
p32
F0.5
sS'n_trees'
p33
I1
sS'k'
I2
sS'n_features_to_predict'
p34
F0.5
sS'kmeans_type'
p35
S'squishy'
p36
sS'max_depth'
p37
I4
sg11
(g13
S'@\x988\x1en\xf0\xe6?'
tRp38
g11
(g13
S'\x00\x00\x00\x00\x00\x00\x00@'
tRp39
tp40
a(S'breast_cancer'
(dp41
S'n_forests'
p42
I100
sS'n_jobs'
p43
I-1
sS'weight_extent'
p44
F0.5
sS'n_trees'
p45
I1
sS'k'
I2
sS'n_features_to_predict'
p46
F0.5
sS'kmeans_type'
p47
S'squishy'
p48
sS'max_depth'
p49
I4
sg11
(g13
S'\xaa\xe9]N\xf3\xaf\xef?'
tRp50
g11
(g13
S'\x00\x00\x00\x00\x00\x00\x00@'
tRp51
tp52
a(S'boston'
(dp53
S'n_forests'
p54
I100
sS'n_jobs'
p55
I-1
sS'weight_extent'
p56
F0.5
sS'n_trees'
p57
I1
sS'k'
I3
sS'n_features_to_predict'
p58
F0.5
sS'kmeans_type'
p59
S'squishy'
p60
sS'max_depth'
p61
I4
sg11
(g13
S'%Ur[\x9fh\xe6?'
tRp62
g11
(g13
S'\x00\x00\x00\x00\x00\x00\x08@'
tRp63
tp64
a(S'diabetes'
(dp65
S'n_forests'
p66
I100
sS'n_jobs'
p67
I-1
sS'weight_extent'
p68
F0.5
sS'n_trees'
p69
I1
sS'k'
I3
sS'n_features_to_predict'
p70
F0.5
sS'kmeans_type'
p71
S'squishy'
p72
sS'max_depth'
p73
I4
sg11
(g13
S'\x00\xfd\x1c\x82\xd8\\\xed?'
tRp74
g11
(g13
S'\xcd\xcc\xcc\xcc\xcc\xcc\x04@'
tRp75
tp76
a(S'iris'
(dp77
S'n_forests'
p78
I100
sS'n_jobs'
p79
I-1
sS'weight_extent'
p80
F0.5
sS'n_trees'
p81
I1
sS'k'
I3
sS'n_features_to_predict'
p82
F0.5
sS'kmeans_type'
p83
S'squishy'
p84
sS'max_depth'
p85
I4
sg11
(g13
S'>1U\x82oE\xdd?'
tRp86
g11
(g13
S'\x00\x00\x00\x00\x00\x00\x08@'
tRp87
tp88
a(S'breast_cancer'
(dp89
S'n_forests'
p90
I100
sS'n_jobs'
p91
I-1
sS'weight_extent'
p92
F0.5
sS'n_trees'
p93
I1
sS'k'
I3
sS'n_features_to_predict'
p94
F0.5
sS'kmeans_type'
p95
S'squishy'
p96
sS'max_depth'
p97
I4
sg11
(g13
S'5\xeb\x08\x85\xc2M\xec?'
tRp98
g11
(g13
S'\xcd\xcc\xcc\xcc\xcc\xcc\x04@'
tRp99
tp100
a(S'boston'
(dp101
S'n_forests'
p102
I100
sS'n_jobs'
p103
I-1
sS'weight_extent'
p104
F0.5
sS'n_trees'
p105
I1
sS'k'
I4
sS'n_features_to_predict'
p106
F0.5
sS'kmeans_type'
p107
S'squishy'
p108
sS'max_depth'
p109
I4
sg11
(g13
S'#9fs\xca\x92\xe6?'
tRp110
g11
(g13
S'333333\x0f@'
tRp111
tp112
a(S'diabetes'
(dp113
S'n_forests'
p114
I100
sS'n_jobs'
p115
I-1
sS'weight_extent'
p116
F0.5
sS'n_trees'
p117
I1
sS'k'
I4
sS'n_features_to_predict'
p118
F0.5
sS'kmeans_type'
p119
S'squishy'
p120
sS'max_depth'
p121
I4
sg11
(g13
S'\xa5\x82\xc2z1\xeb\xed?'
tRp122
g11
(g13
S'333333\x0b@'
tRp123
tp124
a(S'iris'
(dp125
S'n_forests'
p126
I100
sS'n_jobs'
p127
I-1
sS'weight_extent'
p128
F0.5
sS'n_trees'
p129
I1
sS'k'
I4
sS'n_features_to_predict'
p130
F0.5
sS'kmeans_type'
p131
S'squishy'
p132
sS'max_depth'
p133
I4
sg11
(g13
S'\x14\x06/\x93\x83\x89\xd6?'
tRp134
g11
(g13
S'\x00\x00\x00\x00\x00\x00\x10@'
tRp135
tp136
a(S'breast_cancer'
(dp137
S'n_forests'
p138
I100
sS'n_jobs'
p139
I-1
sS'weight_extent'
p140
F0.5
sS'n_trees'
p141
I1
sS'k'
I4
sS'n_features_to_predict'
p142
F0.5
sS'kmeans_type'
p143
S'squishy'
p144
sS'max_depth'
p145
I4
sg11
(g13
S'\x18\xe1\xb1@\xf0}\xef?'
tRp146
g11
(g13
S'\x00\x00\x00\x00\x00\x00\x00@'
tRp147
tp148
a(S'boston'
(dp149
S'n_forests'
p150
I100
sS'n_jobs'
p151
I-1
sS'weight_extent'
p152
F0.5
sS'n_trees'
p153
I1
sS'k'
I5
sS'n_features_to_predict'
p154
F0.5
sS'kmeans_type'
p155
S'squishy'
p156
sS'max_depth'
p157
I4
sg11
(g13
S'\xa7\x934\x08\x8e\xdf\xe1?'
tRp158
g11
(g13
S'\x00\x00\x00\x00\x00\x00\x14@'
tRp159
tp160
a(S'diabetes'
(dp161
S'n_forests'
p162
I100
sS'n_jobs'
p163
I-1
sS'weight_extent'
p164
F0.5
sS'n_trees'
p165
I1
sS'k'
I5
sS'n_features_to_predict'
p166
F0.5
sS'kmeans_type'
p167
S'squishy'
p168
sS'max_depth'
p169
I4
sg11
(g13
S'\x8b\t\xb8\xf7\xc6\x0e\xea?'
tRp170
g11
(g13
S'\x00\x00\x00\x00\x00\x00\x10@'
tRp171
tp172
a(S'iris'
(dp173
S'n_forests'
p174
I100
sS'n_jobs'
p175
I-1
sS'weight_extent'
p176
F0.5
sS'n_trees'
p177
I1
sS'k'
I5
sS'n_features_to_predict'
p178
F0.5
sS'kmeans_type'
p179
S'squishy'
p180
sS'max_depth'
p181
I4
sg11
(g13
S'\xf8\x9ew]\x90\x02\xda?'
tRp182
g11
(g13
S'\x00\x00\x00\x00\x00\x00\x10@'
tRp183
tp184
a(S'breast_cancer'
(dp185
S'n_forests'
p186
I100
sS'n_jobs'
p187
I-1
sS'weight_extent'
p188
F0.5
sS'n_trees'
p189
I1
sS'k'
I5
sS'n_features_to_predict'
p190
F0.5
sS'kmeans_type'
p191
S'squishy'
p192
sS'max_depth'
p193
I4
sg11
(g13
S'\xd7\xd0\xea>f\xcc\xe7?'
tRp194
g11
(g13
S'\x00\x00\x00\x00\x00\x00\x08@'
tRp195
tp196
a(S'boston'
(dp197
S'n_forests'
p198
I100
sS'n_jobs'
p199
I-1
sS'weight_extent'
p200
F0.5
sS'n_trees'
p201
I1
sS'k'
I6
sS'n_features_to_predict'
p202
F0.5
sS'kmeans_type'
p203
S'squishy'
p204
sS'max_depth'
p205
I4
sg11
(g13
S'?\xd5\xda\x11:\xe6\xe1?'
tRp206
g11
(g13
S'\xcd\xcc\xcc\xcc\xcc\xcc\x14@'
tRp207
tp208
a(S'diabetes'
(dp209
S'n_forests'
p210
I100
sS'n_jobs'
p211
I-1
sS'weight_extent'
p212
F0.5
sS'n_trees'
p213
I1
sS'k'
I6
sS'n_features_to_predict'
p214
F0.5
sS'kmeans_type'
p215
S'squishy'
p216
sS'max_depth'
p217
I4
sg11
(g13
S"zJ\xf0'\x94h\xe9?"
tRp218
g11
(g13
S'ffffff\x12@'
tRp219
tp220
a(S'iris'
(dp221
S'n_forests'
p222
I100
sS'n_jobs'
p223
I-1
sS'weight_extent'
p224
F0.5
sS'n_trees'
p225
I1
sS'k'
I6
sS'n_features_to_predict'
p226
F0.5
sS'kmeans_type'
p227
S'squishy'
p228
sS'max_depth'
p229
I4
sg11
(g13
S'\xfe\xe4\x0b\x8c\xde\xde\xe2?'
tRp230
g11
(g13
S'\x00\x00\x00\x00\x00\x00\x14@'
tRp231
tp232
a(S'breast_cancer'
(dp233
S'n_forests'
p234
I100
sS'n_jobs'
p235
I-1
sS'weight_extent'
p236
F0.5
sS'n_trees'
p237
I1
sS'k'
I6
sS'n_features_to_predict'
p238
F0.5
sS'kmeans_type'
p239
S'squishy'
p240
sS'max_depth'
p241
I4
sg11
(g13
S'\xf5\xb0h\x84,\xac\xee?'
tRp242
g11
(g13
S'\xcd\xcc\xcc\xcc\xcc\xcc\x08@'
tRp243
tp244
a(S'boston'
(dp245
S'n_forests'
p246
I100
sS'n_jobs'
p247
I-1
sS'weight_extent'
p248
F0.5
sS'n_trees'
p249
I1
sS'k'
I8
sS'n_features_to_predict'
p250
F0.5
sS'kmeans_type'
p251
S'squishy'
p252
sS'max_depth'
p253
I4
sg11
(g13
S'\x91k\xf8W\x07!\xe0?'
tRp254
g11
(g13
S'\x9a\x99\x99\x99\x99\x99\x1d@'
tRp255
tp256
a(S'diabetes'
(dp257
S'n_forests'
p258
I100
sS'n_jobs'
p259
I-1
sS'weight_extent'
p260
F0.5
sS'n_trees'
p261
I1
sS'k'
I8
sS'n_features_to_predict'
p262
F0.5
sS'kmeans_type'
p263
S'squishy'
p264
sS'max_depth'
p265
I4
sg11
(g13
S'%\x9b%\xefZ\xac\xeb?'
tRp266
g11
(g13
S'333333\x17@'
tRp267
tp268
a(S'iris'
(dp269
S'n_forests'
p270
I100
sS'n_jobs'
p271
I-1
sS'weight_extent'
p272
F0.5
sS'n_trees'
p273
I1
sS'k'
I8
sS'n_features_to_predict'
p274
F0.5
sS'kmeans_type'
p275
S'squishy'
p276
sS'max_depth'
p277
I4
sg11
(g13
S'\xe4:?\x14\x96N\xd4?'
tRp278
g11
(g13
S'\x00\x00\x00\x00\x00\x00\x1c@'
tRp279
tp280
a(S'breast_cancer'
(dp281
S'n_forests'
p282
I100
sS'n_jobs'
p283
I-1
sS'weight_extent'
p284
F0.5
sS'n_trees'
p285
I1
sS'k'
I8
sS'n_features_to_predict'
p286
F0.5
sS'kmeans_type'
p287
S'squishy'
p288
sS'max_depth'
p289
I4
sg11
(g13
S'"\xa2\xfbD\xc8\xf9\xeb?'
tRp290
g11
(g13
S'ffffff\n@'
tRp291
tp292
a(S'boston'
(dp293
S'n_forests'
p294
I100
sS'n_jobs'
p295
I-1
sS'weight_extent'
p296
F0.5
sS'n_trees'
p297
I1
sS'k'
I10
sS'n_features_to_predict'
p298
F0.5
sS'kmeans_type'
p299
S'squishy'
p300
sS'max_depth'
p301
I4
sg11
(g13
S'J\xf6Q+\xab\xf4\xdb?'
tRp302
g11
(g13
S'333333!@'
tRp303
tp304
a(S'diabetes'
(dp305
S'n_forests'
p306
I100
sS'n_jobs'
p307
I-1
sS'weight_extent'
p308
F0.5
sS'n_trees'
p309
I1
sS'k'
I10
sS'n_features_to_predict'
p310
F0.5
sS'kmeans_type'
p311
S'squishy'
p312
sS'max_depth'
p313
I4
sg11
(g13
S'r\xe9\xf2\x8eRN\xeb?'
tRp314
g11
(g13
S'\x9a\x99\x99\x99\x99\x99\x19@'
tRp315
tp316
a(S'iris'
(dp317
S'n_forests'
p318
I100
sS'n_jobs'
p319
I-1
sS'weight_extent'
p320
F0.5
sS'n_trees'
p321
I1
sS'k'
I10
sS'n_features_to_predict'
p322
F0.5
sS'kmeans_type'
p323
S'squishy'
p324
sS'max_depth'
p325
I4
sg11
(g13
S'8\xf9\xba\xee\xcc\x9c\xd4?'
tRp326
g11
(g13
S'\x00\x00\x00\x00\x00\x00#@'
tRp327
tp328
a(S'breast_cancer'
(dp329
S'n_forests'
p330
I100
sS'n_jobs'
p331
I-1
sS'weight_extent'
p332
F0.5
sS'n_trees'
p333
I1
sS'k'
I10
sS'n_features_to_predict'
p334
F0.5
sS'kmeans_type'
p335
S'squishy'
p336
sS'max_depth'
p337
I4
sg11
(g13
S'\xe2\xb43\x99\x1c\xd9\xe9?'
tRp338
g11
(g13
S'\xcd\xcc\xcc\xcc\xcc\xcc\x14@'
tRp339
tp340
a(S'boston'
(dp341
S'n_forests'
p342
I100
sS'n_jobs'
p343
I-1
sS'weight_extent'
p344
F0.5
sS'n_trees'
p345
I1
sS'k'
I2
sS'n_features_to_predict'
p346
F0.5
sS'kmeans_type'
p347
S'squishy'
p348
sS'max_depth'
p349
I5
sg11
(g13
S'Sf\xc4\xc0\xa9b\xe9?'
tRp350
g11
(g13
S'\x00\x00\x00\x00\x00\x00\x00@'
tRp351
tp352
a(S'diabetes'
(dp353
S'n_forests'
p354
I100
sS'n_jobs'
p355
I-1
sS'weight_extent'
p356
F0.5
sS'n_trees'
p357
I1
sS'k'
I2
sS'n_features_to_predict'
p358
F0.5
sS'kmeans_type'
p359
S'squishy'
p360
sS'max_depth'
p361
I5
sg11
(g13
S'v\\\xb9\x97\xaf\xb3\xef?'
tRp362
g11
(g13
S'333333\xfb?'
tRp363
tp364
a(S'iris'
(dp365
S'n_forests'
p366
I100
sS'n_jobs'
p367
I-1
sS'weight_extent'
p368
F0.5
sS'n_trees'
p369
I1
sS'k'
I2
sS'n_features_to_predict'
p370
F0.5
sS'kmeans_type'
p371
S'squishy'
p372
sS'max_depth'
p373
I5
sg11
(g13
S'\xed\xa6\xe2\xd2\x94\xef\xe6?'
tRp374
g11
(g13
S'\x00\x00\x00\x00\x00\x00\x00@'
tRp375
tp376
a(S'breast_cancer'
(dp377
S'n_forests'
p378
I100
sS'n_jobs'
p379
I-1
sS'weight_extent'
p380
F0.5
sS'n_trees'
p381
I1
sS'k'
I2
sS'n_features_to_predict'
p382
F0.5
sS'kmeans_type'
p383
S'squishy'
p384
sS'max_depth'
p385
I5
sg11
(g13
S'NE\xdf>\xe4\xfb\xed?'
tRp386
g11
(g13
S'\x00\x00\x00\x00\x00\x00\x00@'
tRp387
tp388
a(S'boston'
(dp389
S'n_forests'
p390
I100
sS'n_jobs'
p391
I-1
sS'weight_extent'
p392
F0.5
sS'n_trees'
p393
I1
sS'k'
I3
sS'n_features_to_predict'
p394
F0.5
sS'kmeans_type'
p395
S'squishy'
p396
sS'max_depth'
p397
I5
sg11
(g13
S'N"\xc6&\x81\x86\xe5?'
tRp398
g11
(g13
S'\x00\x00\x00\x00\x00\x00\x08@'
tRp399
tp400
a(S'diabetes'
(dp401
S'n_forests'
p402
I100
sS'n_jobs'
p403
I-1
sS'weight_extent'
p404
F0.5
sS'n_trees'
p405
I1
sS'k'
I3
sS'n_features_to_predict'
p406
F0.5
sS'kmeans_type'
p407
S'squishy'
p408
sS'max_depth'
p409
I5
sg11
(g13
S'\x1b\xa3\x133\xe7X\xed?'
tRp410
g11
(g13
S'ffffff\x06@'
tRp411
tp412
a(S'iris'
(dp413
S'n_forests'
p414
I100
sS'n_jobs'
p415
I-1
sS'weight_extent'
p416
F0.5
sS'n_trees'
p417
I1
sS'k'
I3
sS'n_features_to_predict'
p418
F0.5
sS'kmeans_type'
p419
S'squishy'
p420
sS'max_depth'
p421
I5
sg11
(g13
S'B\xc3\xff\n\xb4\x19\xe2?'
tRp422
g11
(g13
S'\x00\x00\x00\x00\x00\x00\x08@'
tRp423
tp424
a(S'breast_cancer'
(dp425
S'n_forests'
p426
I100
sS'n_jobs'
p427
I-1
sS'weight_extent'
p428
F0.5
sS'n_trees'
p429
I1
sS'k'
I3
sS'n_features_to_predict'
p430
F0.5
sS'kmeans_type'
p431
S'squishy'
p432
sS'max_depth'
p433
I5
sg11
(g13
S'+\x80\x0c\x8c\x07O\xef?'
tRp434
g11
(g13
S'\xcd\xcc\xcc\xcc\xcc\xcc\x00@'
tRp435
tp436
a(S'boston'
(dp437
S'n_forests'
p438
I100
sS'n_jobs'
p439
I-1
sS'weight_extent'
p440
F0.5
sS'n_trees'
p441
I1
sS'k'
I4
sS'n_features_to_predict'
p442
F0.5
sS'kmeans_type'
p443
S'squishy'
p444
sS'max_depth'
p445
I5
sg11
(g13
S"\xe5m\xdb\xe5'\xa8\xe3?"
tRp446
g11
(g13
S'\x00\x00\x00\x00\x00\x00\x10@'
tRp447
tp448
a(S'diabetes'
(dp449
S'n_forests'
p450
I100
sS'n_jobs'
p451
I-1
sS'weight_extent'
p452
F0.5
sS'n_trees'
p453
I1
sS'k'
I4
sS'n_features_to_predict'
p454
F0.5
sS'kmeans_type'
p455
S'squishy'
p456
sS'max_depth'
p457
I5
sg11
(g13
S'\xeb}\xf8\x013#\xec?'
tRp458
g11
(g13
S'ffffff\n@'
tRp459
tp460
a(S'iris'
(dp461
S'n_forests'
p462
I100
sS'n_jobs'
p463
I-1
sS'weight_extent'
p464
F0.5
sS'n_trees'
p465
I1
sS'k'
I4
sS'n_features_to_predict'
p466
F0.5
sS'kmeans_type'
p467
S'squishy'
p468
sS'max_depth'
p469
I5
sg11
(g13
S'\x1c\xd5^\xa4.l\xdc?'
tRp470
g11
(g13
S'\x00\x00\x00\x00\x00\x00\x10@'
tRp471
tp472
a(S'breast_cancer'
(dp473
S'n_forests'
p474
I100
sS'n_jobs'
p475
I-1
sS'weight_extent'
p476
F0.5
sS'n_trees'
p477
I1
sS'k'
I4
sS'n_features_to_predict'
p478
F0.5
sS'kmeans_type'
p479
S'squishy'
p480
sS'max_depth'
p481
I5
sg11
(g13
S'\xa8\t\x8d\x05\xa4\xeb\xeb?'
tRp482
g11
(g13
S'\xcd\xcc\xcc\xcc\xcc\xcc\x0c@'
tRp483
tp484
a(S'boston'
(dp485
S'n_forests'
p486
I100
sS'n_jobs'
p487
I-1
sS'weight_extent'
p488
F0.5
sS'n_trees'
p489
I1
sS'k'
I5
sS'n_features_to_predict'
p490
F0.5
sS'kmeans_type'
p491
S'squishy'
p492
sS'max_depth'
p493
I5
sg11
(g13
S'\x11]\r\x94\x8fE\xe2?'
tRp494
g11
(g13
S'\xcd\xcc\xcc\xcc\xcc\xcc\x12@'
tRp495
tp496
a(S'diabetes'
(dp497
S'n_forests'
p498
I100
sS'n_jobs'
p499
I-1
sS'weight_extent'
p500
F0.5
sS'n_trees'
p501
I1
sS'k'
I5
sS'n_features_to_predict'
p502
F0.5
sS'kmeans_type'
p503
S'squishy'
p504
sS'max_depth'
p505
I5
sg11
(g13
S'\xf3\xe6a5\xac\xcd\xe7?'
tRp506
g11
(g13
S'ffffff\x10@'
tRp507
tp508
a(S'iris'
(dp509
S'n_forests'
p510
I100
sS'n_jobs'
p511
I-1
sS'weight_extent'
p512
F0.5
sS'n_trees'
p513
I1
sS'k'
I5
sS'n_features_to_predict'
p514
F0.5
sS'kmeans_type'
p515
S'squishy'
p516
sS'max_depth'
p517
I5
sg11
(g13
S'\xe6G\x12\xe8\x08\xc8\xe0?'
tRp518
g11
(g13
S'\x00\x00\x00\x00\x00\x00\x14@'
tRp519
tp520
a(S'breast_cancer'
(dp521
S'n_forests'
p522
I100
sS'n_jobs'
p523
I-1
sS'weight_extent'
p524
F0.5
sS'n_trees'
p525
I1
sS'k'
I5
sS'n_features_to_predict'
p526
F0.5
sS'kmeans_type'
p527
S'squishy'
p528
sS'max_depth'
p529
I5
sg11
(g13
S'\xde_\xd9a\xdd<\xe9?'
tRp530
g11
(g13
S'\xcd\xcc\xcc\xcc\xcc\xcc\x08@'
tRp531
tp532
a(S'boston'
(dp533
S'n_forests'
p534
I100
sS'n_jobs'
p535
I-1
sS'weight_extent'
p536
F0.5
sS'n_trees'
p537
I1
sS'k'
I6
sS'n_features_to_predict'
p538
F0.5
sS'kmeans_type'
p539
S'squishy'
p540
sS'max_depth'
p541
I5
sg11
(g13
S'\x0c/\x9cahC\xe3?'
tRp542
g11
(g13
S'\xcd\xcc\xcc\xcc\xcc\xcc\x14@'
tRp543
tp544
a(S'diabetes'
(dp545
S'n_forests'
p546
I100
sS'n_jobs'
p547
I-1
sS'weight_extent'
p548
F0.5
sS'n_trees'
p549
I1
sS'k'
I6
sS'n_features_to_predict'
p550
F0.5
sS'kmeans_type'
p551
S'squishy'
p552
sS'max_depth'
p553
I5
sg11
(g13
S'\xa8\x11\r\xe4t\xa5\xe9?'
tRp554
g11
(g13
S'\x9a\x99\x99\x99\x99\x99\x15@'
tRp555
tp556
a(S'iris'
(dp557
S'n_forests'
p558
I100
sS'n_jobs'
p559
I-1
sS'weight_extent'
p560
F0.5
sS'n_trees'
p561
I1
sS'k'
I6
sS'n_features_to_predict'
p562
F0.5
sS'kmeans_type'
p563
S'squishy'
p564
sS'max_depth'
p565
I5
sg11
(g13
S'\x0c\xbcD\x1c\x14\x8b\xdf?'
tRp566
g11
(g13
S'\x00\x00\x00\x00\x00\x00\x18@'
tRp567
tp568
a(S'breast_cancer'
(dp569
S'n_forests'
p570
I100
sS'n_jobs'
p571
I-1
sS'weight_extent'
p572
F0.5
sS'n_trees'
p573
I1
sS'k'
I6
sS'n_features_to_predict'
p574
F0.5
sS'kmeans_type'
p575
S'squishy'
p576
sS'max_depth'
p577
I5
sg11
(g13
S'\xfd\x1cy\xab4\x93\xeb?'
tRp578
g11
(g13
S'\xcd\xcc\xcc\xcc\xcc\xcc\x12@'
tRp579
tp580
a(S'boston'
(dp581
S'n_forests'
p582
I100
sS'n_jobs'
p583
I-1
sS'weight_extent'
p584
F0.5
sS'n_trees'
p585
I1
sS'k'
I8
sS'n_features_to_predict'
p586
F0.5
sS'kmeans_type'
p587
S'squishy'
p588
sS'max_depth'
p589
I5
sg11
(g13
S'\x8e\xf5F\xf8\xf9\xc0\xe1?'
tRp590
g11
(g13
S'\x00\x00\x00\x00\x00\x00\x1c@'
tRp591
tp592
a(S'diabetes'
(dp593
S'n_forests'
p594
I100
sS'n_jobs'
p595
I-1
sS'weight_extent'
p596
F0.5
sS'n_trees'
p597
I1
sS'k'
I8
sS'n_features_to_predict'
p598
F0.5
sS'kmeans_type'
p599
S'squishy'
p600
sS'max_depth'
p601
I5
sg11
(g13
S'J\x15\x1d\xb1\x97\x86\xea?'
tRp602
g11
(g13
S'\x9a\x99\x99\x99\x99\x99\x1d@'
tRp603
tp604
a(S'iris'
(dp605
S'n_forests'
p606
I100
sS'n_jobs'
p607
I-1
sS'weight_extent'
p608
F0.5
sS'n_trees'
p609
I1
sS'k'
I8
sS'n_features_to_predict'
p610
F0.5
sS'kmeans_type'
p611
S'squishy'
p612
sS'max_depth'
p613
I5
sg11
(g13
S'\xef\xc3SL\t\x8d\xdc?'
tRp614
g11
(g13
S'\x00\x00\x00\x00\x00\x00\x1d@'
tRp615
tp616
a(S'breast_cancer'
(dp617
S'n_forests'
p618
I100
sS'n_jobs'
p619
I-1
sS'weight_extent'
p620
F0.5
sS'n_trees'
p621
I1
sS'k'
I8
sS'n_features_to_predict'
p622
F0.5
sS'kmeans_type'
p623
S'squishy'
p624
sS'max_depth'
p625
I5
sg11
(g13
S'.t\xcb~\xf7\x89\xeb?'
tRp626
g11
(g13
S'\xcd\xcc\xcc\xcc\xcc\xcc\x12@'
tRp627
tp628
a(S'boston'
(dp629
S'n_forests'
p630
I100
sS'n_jobs'
p631
I-1
sS'weight_extent'
p632
F0.5
sS'n_trees'
p633
I1
sS'k'
I10
sS'n_features_to_predict'
p634
F0.5
sS'kmeans_type'
p635
S'squishy'
p636
sS'max_depth'
p637
I5
sg11
(g13
S'\xb0\x10,[,\x87\xdd?'
tRp638
g11
(g13
S'333333"@'
tRp639
tp640
a(S'diabetes'
(dp641
S'n_forests'
p642
I100
sS'n_jobs'
p643
I-1
sS'weight_extent'
p644
F0.5
sS'n_trees'
p645
I1
sS'k'
I10
sS'n_features_to_predict'
p646
F0.5
sS'kmeans_type'
p647
S'squishy'
p648
sS'max_depth'
p649
I5
sg11
(g13
S's\n\xd5\xeb\x18\x84\xe5?'
tRp650
g11
(g13
S'\x9a\x99\x99\x99\x99\x99\x1f@'
tRp651
tp652
a(S'iris'
(dp653
S'n_forests'
p654
I100
sS'n_jobs'
p655
I-1
sS'weight_extent'
p656
F0.5
sS'n_trees'
p657
I1
sS'k'
I10
sS'n_features_to_predict'
p658
F0.5
sS'kmeans_type'
p659
S'squishy'
p660
sS'max_depth'
p661
I5
sg11
(g13
S']\xbb5\xa7\xcat\xd1?'
tRp662
g11
(g13
S'\x00\x00\x00\x00\x00\x00"@'
tRp663
tp664
a(S'breast_cancer'
(dp665
S'n_forests'
p666
I100
sS'n_jobs'
p667
I-1
sS'weight_extent'
p668
F0.5
sS'n_trees'
p669
I1
sS'k'
I10
sS'n_features_to_predict'
p670
F0.5
sS'kmeans_type'
p671
S'squishy'
p672
sS'max_depth'
p673
I5
sg11
(g13
S'\x8d#_\x95\x18A\xec?'
tRp674
g11
(g13
S'333333\x0f@'
tRp675
tp676
a(S'boston'
(dp677
S'n_forests'
p678
I100
sS'n_jobs'
p679
I-1
sS'weight_extent'
p680
F0.5
sS'n_trees'
p681
I1
sS'k'
I2
sS'n_features_to_predict'
p682
F0.5
sS'kmeans_type'
p683
S'squishy'
p684
sS'max_depth'
p685
I6
sg11
(g13
S'\xbcq\xdaq\x8ee\xe9?'
tRp686
g11
(g13
S'\x00\x00\x00\x00\x00\x00\x00@'
tRp687
tp688
a(S'diabetes'
(dp689
S'n_forests'
p690
I100
sS'n_jobs'
p691
I-1
sS'weight_extent'
p692
F0.5
sS'n_trees'
p693
I1
sS'k'
I2
sS'n_features_to_predict'
p694
F0.5
sS'kmeans_type'
p695
S'squishy'
p696
sS'max_depth'
p697
I6
sg11
(g13
S'\xf6X\xc29M_\xed?'
tRp698
g11
(g13
S'\x00\x00\x00\x00\x00\x00\x00@'
tRp699
tp700
a(S'iris'
(dp701
S'n_forests'
p702
I100
sS'n_jobs'
p703
I-1
sS'weight_extent'
p704
F0.5
sS'n_trees'
p705
I1
sS'k'
I2
sS'n_features_to_predict'
p706
F0.5
sS'kmeans_type'
p707
S'squishy'
p708
sS'max_depth'
p709
I6
sg11
(g13
S'u~h\\\x12\xdf\xe9?'
tRp710
g11
(g13
S'\x00\x00\x00\x00\x00\x00\x00@'
tRp711
tp712
a(S'breast_cancer'
(dp713
S'n_forests'
p714
I100
sS'n_jobs'
p715
I-1
sS'weight_extent'
p716
F0.5
sS'n_trees'
p717
I1
sS'k'
I2
sS'n_features_to_predict'
p718
F0.5
sS'kmeans_type'
p719
S'squishy'
p720
sS'max_depth'
p721
I6
sg11
(g13
S'\x88\xe5\xddwz\x8a\xef?'
tRp722
g11
(g13
S'ffffff\xf6?'
tRp723
tp724
a(S'boston'
(dp725
S'n_forests'
p726
I100
sS'n_jobs'
p727
I-1
sS'weight_extent'
p728
F0.5
sS'n_trees'
p729
I1
sS'k'
I3
sS'n_features_to_predict'
p730
F0.5
sS'kmeans_type'
p731
S'squishy'
p732
sS'max_depth'
p733
I6
sg11
(g13
S'\xf92\xba\xfeD<\xe7?'
tRp734
g11
(g13
S'\x00\x00\x00\x00\x00\x00\x08@'
tRp735
tp736
a(S'diabetes'
(dp737
S'n_forests'
p738
I100
sS'n_jobs'
p739
I-1
sS'weight_extent'
p740
F0.5
sS'n_trees'
p741
I1
sS'k'
I3
sS'n_features_to_predict'
p742
F0.5
sS'kmeans_type'
p743
S'squishy'
p744
sS'max_depth'
p745
I6
sg11
(g13
S'\xfa\xc03q$\xbb\xea?'
tRp746
g11
(g13
S'\x00\x00\x00\x00\x00\x00\x08@'
tRp747
tp748
a(S'iris'
(dp749
S'n_forests'
p750
I100
sS'n_jobs'
p751
I-1
sS'weight_extent'
p752
F0.5
sS'n_trees'
p753
I1
sS'k'
I3
sS'n_features_to_predict'
p754
F0.5
sS'kmeans_type'
p755
S'squishy'
p756
sS'max_depth'
p757
I6
sg11
(g13
S'\x93\x9c>\xfc*Q\xe5?'
tRp758
g11
(g13
S'\x00\x00\x00\x00\x00\x00\x08@'
tRp759
tp760
a(S'breast_cancer'
(dp761
S'n_forests'
p762
I100
sS'n_jobs'
p763
I-1
sS'weight_extent'
p764
F0.5
sS'n_trees'
p765
I1
sS'k'
I3
sS'n_features_to_predict'
p766
F0.5
sS'kmeans_type'
p767
S'squishy'
p768
sS'max_depth'
p769
I6
sg11
(g13
S'\x06K\t_\x07\xd2\xeb?'
tRp770
g11
(g13
S'333333\x07@'
tRp771
tp772
a(S'boston'
(dp773
S'n_forests'
p774
I100
sS'n_jobs'
p775
I-1
sS'weight_extent'
p776
F0.5
sS'n_trees'
p777
I1
sS'k'
I4
sS'n_features_to_predict'
p778
F0.5
sS'kmeans_type'
p779
S'squishy'
p780
sS'max_depth'
p781
I6
sg11
(g13
S'vN\xc8\x9ex\xa8\xe7?'
tRp782
g11
(g13
S'\x00\x00\x00\x00\x00\x00\x10@'
tRp783
tp784
a(S'diabetes'
(dp785
S'n_forests'
p786
I100
sS'n_jobs'
p787
I-1
sS'weight_extent'
p788
F0.5
sS'n_trees'
p789
I1
sS'k'
I4
sS'n_features_to_predict'
p790
F0.5
sS'kmeans_type'
p791
S'squishy'
p792
sS'max_depth'
p793
I6
sg11
(g13
S'\xdak\xec\xb4\xa3-\xeb?'
tRp794
g11
(g13
S'\x00\x00\x00\x00\x00\x00\x10@'
tRp795
tp796
a(S'iris'
(dp797
S'n_forests'
p798
I100
sS'n_jobs'
p799
I-1
sS'weight_extent'
p800
F0.5
sS'n_trees'
p801
I1
sS'k'
I4
sS'n_features_to_predict'
p802
F0.5
sS'kmeans_type'
p803
S'squishy'
p804
sS'max_depth'
p805
I6
sg11
(g13
S'G_70k\xc0\xe0?'
tRp806
g11
(g13
S'\x00\x00\x00\x00\x00\x00\x10@'
tRp807
tp808
a(S'breast_cancer'
(dp809
S'n_forests'
p810
I100
sS'n_jobs'
p811
I-1
sS'weight_extent'
p812
F0.5
sS'n_trees'
p813
I1
sS'k'
I4
sS'n_features_to_predict'
p814
F0.5
sS'kmeans_type'
p815
S'squishy'
p816
sS'max_depth'
p817
I6
sg11
(g13
S'6\x9e9\xa3\x1co\xed?'
tRp818
g11
(g13
S'\xcd\xcc\xcc\xcc\xcc\xcc\x08@'
tRp819
tp820
a(S'boston'
(dp821
S'n_forests'
p822
I100
sS'n_jobs'
p823
I-1
sS'weight_extent'
p824
F0.5
sS'n_trees'
p825
I1
sS'k'
I5
sS'n_features_to_predict'
p826
F0.5
sS'kmeans_type'
p827
S'squishy'
p828
sS'max_depth'
p829
I6
sg11
(g13
S'\xc1\xc7\xc47E=\xe5?'
tRp830
g11
(g13
S'\x9a\x99\x99\x99\x99\x99\x13@'
tRp831
tp832
a(S'diabetes'
(dp833
S'n_forests'
p834
I100
sS'n_jobs'
p835
I-1
sS'weight_extent'
p836
F0.5
sS'n_trees'
p837
I1
sS'k'
I5
sS'n_features_to_predict'
p838
F0.5
sS'kmeans_type'
p839
S'squishy'
p840
sS'max_depth'
p841
I6
sg11
(g13
S'x(;\x99d\x97\xec?'
tRp842
g11
(g13
S'\x00\x00\x00\x00\x00\x00\x10@'
tRp843
tp844
a(S'iris'
(dp845
S'n_forests'
p846
I100
sS'n_jobs'
p847
I-1
sS'weight_extent'
p848
F0.5
sS'n_trees'
p849
I1
sS'k'
I5
sS'n_features_to_predict'
p850
F0.5
sS'kmeans_type'
p851
S'squishy'
p852
sS'max_depth'
p853
I6
sg11
(g13
S'\xa8\xc5\xf0k\xcf\xd4\xdd?'
tRp854
g11
(g13
S'\x00\x00\x00\x00\x00\x00\x14@'
tRp855
tp856
a(S'breast_cancer'
(dp857
S'n_forests'
p858
I100
sS'n_jobs'
p859
I-1
sS'weight_extent'
p860
F0.5
sS'n_trees'
p861
I1
sS'k'
I5
sS'n_features_to_predict'
p862
F0.5
sS'kmeans_type'
p863
S'squishy'
p864
sS'max_depth'
p865
I6
sg11
(g13
S'\x95\x8c\xdfa\xf8\x96\xed?'
tRp866
g11
(g13
S'333333\x0f@'
tRp867
tp868
a(S'boston'
(dp869
S'n_forests'
p870
I100
sS'n_jobs'
p871
I-1
sS'weight_extent'
p872
F0.5
sS'n_trees'
p873
I1
sS'k'
I6
sS'n_features_to_predict'
p874
F0.5
sS'kmeans_type'
p875
S'squishy'
p876
sS'max_depth'
p877
I6
sg11
(g13
S'\xbc\x9c\x9b~o\xdd\xe2?'
tRp878
g11
(g13
S'\xcd\xcc\xcc\xcc\xcc\xcc\x16@'
tRp879
tp880
a(S'diabetes'
(dp881
S'n_forests'
p882
I100
sS'n_jobs'
p883
I-1
sS'weight_extent'
p884
F0.5
sS'n_trees'
p885
I1
sS'k'
I6
sS'n_features_to_predict'
p886
F0.5
sS'kmeans_type'
p887
S'squishy'
p888
sS'max_depth'
p889
I6
sg11
(g13
S'\xd6\x8c\xbf\xadb7\xe9?'
tRp890
g11
(g13
S'\x00\x00\x00\x00\x00\x00\x14@'
tRp891
tp892
a(S'iris'
(dp893
S'n_forests'
p894
I100
sS'n_jobs'
p895
I-1
sS'weight_extent'
p896
F0.5
sS'n_trees'
p897
I1
sS'k'
I6
sS'n_features_to_predict'
p898
F0.5
sS'kmeans_type'
p899
S'squishy'
p900
sS'max_depth'
p901
I6
sg11
(g13
S'\xa6u\x05\xb8\xcb3\xe1?'
tRp902
g11
(g13
S'\x00\x00\x00\x00\x00\x00\x18@'
tRp903
tp904
a(S'breast_cancer'
(dp905
S'n_forests'
p906
I100
sS'n_jobs'
p907
I-1
sS'weight_extent'
p908
F0.5
sS'n_trees'
p909
I1
sS'k'
I6
sS'n_features_to_predict'
p910
F0.5
sS'kmeans_type'
p911
S'squishy'
p912
sS'max_depth'
p913
I6
sg11
(g13
S'P{,-\xf8\xca\xed?'
tRp914
g11
(g13
S'\x00\x00\x00\x00\x00\x00\x12@'
tRp915
tp916
a(S'boston'
(dp917
S'n_forests'
p918
I100
sS'n_jobs'
p919
I-1
sS'weight_extent'
p920
F0.5
sS'n_trees'
p921
I1
sS'k'
I8
sS'n_features_to_predict'
p922
F0.5
sS'kmeans_type'
p923
S'squishy'
p924
sS'max_depth'
p925
I6
sg11
(g13
S'8\xc6d\x08\xe2\xc5\xe3?'
tRp926
g11
(g13
S'ffffff\x1a@'
tRp927
tp928
a(S'diabetes'
(dp929
S'n_forests'
p930
I100
sS'n_jobs'
p931
I-1
sS'weight_extent'
p932
F0.5
sS'n_trees'
p933
I1
sS'k'
I8
sS'n_features_to_predict'
p934
F0.5
sS'kmeans_type'
p935
S'squishy'
p936
sS'max_depth'
p937
I6
sg11
(g13
S'\xd6\xb2\x1a\xdd\x07\x12\xea?'
tRp938
g11
(g13
S'\x00\x00\x00\x00\x00\x00\x18@'
tRp939
tp940
a(S'iris'
(dp941
S'n_forests'
p942
I100
sS'n_jobs'
p943
I-1
sS'weight_extent'
p944
F0.5
sS'n_trees'
p945
I1
sS'k'
I8
sS'n_features_to_predict'
p946
F0.5
sS'kmeans_type'
p947
S'squishy'
p948
sS'max_depth'
p949
I6
sg11
(g13
S'\xf2\xaa\xfc\x98F\xd3\xe0?'
tRp950
g11
(g13
S'\x00\x00\x00\x00\x00\x00 @'
tRp951
tp952
a(S'breast_cancer'
(dp953
S'n_forests'
p954
I100
sS'n_jobs'
p955
I-1
sS'weight_extent'
p956
F0.5
sS'n_trees'
p957
I1
sS'k'
I8
sS'n_features_to_predict'
p958
F0.5
sS'kmeans_type'
p959
S'squishy'
p960
sS'max_depth'
p961
I6
sg11
(g13
S'\xb8\xe9\xa34~\xf8\xe9?'
tRp962
g11
(g13
S'333333\x17@'
tRp963
tp964
a(S'boston'
(dp965
S'n_forests'
p966
I100
sS'n_jobs'
p967
I-1
sS'weight_extent'
p968
F0.5
sS'n_trees'
p969
I1
sS'k'
I10
sS'n_features_to_predict'
p970
F0.5
sS'kmeans_type'
p971
S'squishy'
p972
sS'max_depth'
p973
I6
sg11
(g13
S'\xfb;\xd0\xe7\x94a\xdb?'
tRp974
g11
(g13
S'\x00\x00\x00\x00\x00\x00"@'
tRp975
tp976
a(S'diabetes'
(dp977
S'n_forests'
p978
I100
sS'n_jobs'
p979
I-1
sS'weight_extent'
p980
F0.5
sS'n_trees'
p981
I1
sS'k'
I10
sS'n_features_to_predict'
p982
F0.5
sS'kmeans_type'
p983
S'squishy'
p984
sS'max_depth'
p985
I6
sg11
(g13
S',Ez\x86\xee]\xe9?'
tRp986
g11
(g13
S'\x9a\x99\x99\x99\x99\x99\x1f@'
tRp987
tp988
a(S'iris'
(dp989
S'n_forests'
p990
I100
sS'n_jobs'
p991
I-1
sS'weight_extent'
p992
F0.5
sS'n_trees'
p993
I1
sS'k'
I10
sS'n_features_to_predict'
p994
F0.5
sS'kmeans_type'
p995
S'squishy'
p996
sS'max_depth'
p997
I6
sg11
(g13
S'J\x91\x81\xde\xa4\xe4\xdd?'
tRp998
g11
(g13
S'\x00\x00\x00\x00\x00\x00$@'
tRp999
tp1000
a(S'breast_cancer'
(dp1001
S'n_forests'
p1002
I100
sS'n_jobs'
p1003
I-1
sS'weight_extent'
p1004
F0.5
sS'n_trees'
p1005
I1
sS'k'
I10
sS'n_features_to_predict'
p1006
F0.5
sS'kmeans_type'
p1007
S'squishy'
p1008
sS'max_depth'
p1009
I6
sg11
(g13
S'{6\xe8R\x93}\xe6?'
tRp1010
g11
(g13
S'ffffff\x12@'
tRp1011
tp1012
a(S'boston'
(dp1013
S'n_forests'
p1014
I100
sS'n_jobs'
p1015
I-1
sS'weight_extent'
p1016
I1
sS'n_trees'
p1017
I1
sS'k'
I2
sS'n_features_to_predict'
p1018
F0.5
sS'kmeans_type'
p1019
S'squishy'
p1020
sS'max_depth'
p1021
I4
sg11
(g13
S'Sl\xd6\xa2\xff\xe1\xe9?'
tRp1022
g11
(g13
S'\x00\x00\x00\x00\x00\x00\x00@'
tRp1023
tp1024
a(S'diabetes'
(dp1025
S'n_forests'
p1026
I100
sS'n_jobs'
p1027
I-1
sS'weight_extent'
p1028
I1
sS'n_trees'
p1029
I1
sS'k'
I2
sS'n_features_to_predict'
p1030
F0.5
sS'kmeans_type'
p1031
S'squishy'
p1032
sS'max_depth'
p1033
I4
sg11
(g13
S'\r\xbfx\x1f\x92\x7f\xed?'
tRp1034
g11
(g13
S'\x00\x00\x00\x00\x00\x00\x00@'
tRp1035
tp1036
a(S'iris'
(dp1037
S'n_forests'
p1038
I100
sS'n_jobs'
p1039
I-1
sS'weight_extent'
p1040
I1
sS'n_trees'
p1041
I1
sS'k'
I2
sS'n_features_to_predict'
p1042
F0.5
sS'kmeans_type'
p1043
S'squishy'
p1044
sS'max_depth'
p1045
I4
sg11
(g13
S'F\xf2U\x89\xf0\x07\xe8?'
tRp1046
g11
(g13
S'\x00\x00\x00\x00\x00\x00\x00@'
tRp1047
tp1048
a(S'breast_cancer'
(dp1049
S'n_forests'
p1050
I100
sS'n_jobs'
p1051
I-1
sS'weight_extent'
p1052
I1
sS'n_trees'
p1053
I1
sS'k'
I2
sS'n_features_to_predict'
p1054
F0.5
sS'kmeans_type'
p1055
S'squishy'
p1056
sS'max_depth'
p1057
I4
sg11
(g13
S'\xc3t\xa7\x9b\xdf\\\xef?'
tRp1058
g11
(g13
S'333333\xfb?'
tRp1059
tp1060
a(S'boston'
(dp1061
S'n_forests'
p1062
I100
sS'n_jobs'
p1063
I-1
sS'weight_extent'
p1064
I1
sS'n_trees'
p1065
I1
sS'k'
I3
sS'n_features_to_predict'
p1066
F0.5
sS'kmeans_type'
p1067
S'squishy'
p1068
sS'max_depth'
p1069
I4
sg11
(g13
S'\x85\x91[\xa8-\x86\xe4?'
tRp1070
g11
(g13
S'333333\x07@'
tRp1071
tp1072
a(S'diabetes'
(dp1073
S'n_forests'
p1074
I100
sS'n_jobs'
p1075
I-1
sS'weight_extent'
p1076
I1
sS'n_trees'
p1077
I1
sS'k'
I3
sS'n_features_to_predict'
p1078
F0.5
sS'kmeans_type'
p1079
S'squishy'
p1080
sS'max_depth'
p1081
I4
sg11
(g13
S'\xe2|\xad\x88\xba\xa2\xec?'
tRp1082
g11
(g13
S'\x00\x00\x00\x00\x00\x00\x08@'
tRp1083
tp1084
a(S'iris'
(dp1085
S'n_forests'
p1086
I100
sS'n_jobs'
p1087
I-1
sS'weight_extent'
p1088
I1
sS'n_trees'
p1089
I1
sS'k'
I3
sS'n_features_to_predict'
p1090
F0.5
sS'kmeans_type'
p1091
S'squishy'
p1092
sS'max_depth'
p1093
I4
sg11
(g13
S'\x99\x1b\x8c\xc2d\x7f\xdb?'
tRp1094
g11
(g13
S'\x00\x00\x00\x00\x00\x00\x08@'
tRp1095
tp1096
a(S'breast_cancer'
(dp1097
S'n_forests'
p1098
I100
sS'n_jobs'
p1099
I-1
sS'weight_extent'
p1100
I1
sS'n_trees'
p1101
I1
sS'k'
I3
sS'n_features_to_predict'
p1102
F0.5
sS'kmeans_type'
p1103
S'squishy'
p1104
sS'max_depth'
p1105
I4
sg11
(g13
S'\x06F\xcaF\xa6y\xee?'
tRp1106
g11
(g13
S'\x00\x00\x00\x00\x00\x00\x04@'
tRp1107
tp1108
a(S'boston'
(dp1109
S'n_forests'
p1110
I100
sS'n_jobs'
p1111
I-1
sS'weight_extent'
p1112
I1
sS'n_trees'
p1113
I1
sS'k'
I4
sS'n_features_to_predict'
p1114
F0.5
sS'kmeans_type'
p1115
S'squishy'
p1116
sS'max_depth'
p1117
I4
sg11
(g13
S'\x07_\x92\xcc[\xd6\xe4?'
tRp1118
g11
(g13
S'\x00\x00\x00\x00\x00\x00\x10@'
tRp1119
tp1120
a(S'diabetes'
(dp1121
S'n_forests'
p1122
I100
sS'n_jobs'
p1123
I-1
sS'weight_extent'
p1124
I1
sS'n_trees'
p1125
I1
sS'k'
I4
sS'n_features_to_predict'
p1126
F0.5
sS'kmeans_type'
p1127
S'squishy'
p1128
sS'max_depth'
p1129
I4
sg11
(g13
S'Z\x19\xcbY!e\xed?'
tRp1130
g11
(g13
S'333333\x0f@'
tRp1131
tp1132
a(S'iris'
(dp1133
S'n_forests'
p1134
I100
sS'n_jobs'
p1135
I-1
sS'weight_extent'
p1136
I1
sS'n_trees'
p1137
I1
sS'k'
I4
sS'n_features_to_predict'
p1138
F0.5
sS'kmeans_type'
p1139
S'squishy'
p1140
sS'max_depth'
p1141
I4
sg11
(g13
S'd9ew\x85z\xdf?'
tRp1142
g11
(g13
S'\x00\x00\x00\x00\x00\x00\x10@'
tRp1143
tp1144
a(S'breast_cancer'
(dp1145
S'n_forests'
p1146
I100
sS'n_jobs'
p1147
I-1
sS'weight_extent'
p1148
I1
sS'n_trees'
p1149
I1
sS'k'
I4
sS'n_features_to_predict'
p1150
F0.5
sS'kmeans_type'
p1151
S'squishy'
p1152
sS'max_depth'
p1153
I4
sg11
(g13
S'\x88\xfc\xf2v9\xac\xe9?'
tRp1154
g11
(g13
S'\x00\x00\x00\x00\x00\x00\x08@'
tRp1155
tp1156
a(S'boston'
(dp1157
S'n_forests'
p1158
I100
sS'n_jobs'
p1159
I-1
sS'weight_extent'
p1160
I1
sS'n_trees'
p1161
I1
sS'k'
I5
sS'n_features_to_predict'
p1162
F0.5
sS'kmeans_type'
p1163
S'squishy'
p1164
sS'max_depth'
p1165
I4
sg11
(g13
S'\x8d\xd4r\xc2e\xe2\xde?'
tRp1166
g11
(g13
S'\x00\x00\x00\x00\x00\x00\x14@'
tRp1167
tp1168
a(S'diabetes'
(dp1169
S'n_forests'
p1170
I100
sS'n_jobs'
p1171
I-1
sS'weight_extent'
p1172
I1
sS'n_trees'
p1173
I1
sS'k'
I5
sS'n_features_to_predict'
p1174
F0.5
sS'kmeans_type'
p1175
S'squishy'
p1176
sS'max_depth'
p1177
I4
sg11
(g13
S'+\x92L\x14K\x16\xeb?'
tRp1178
g11
(g13
S'\x00\x00\x00\x00\x00\x00\x10@'
tRp1179
tp1180
a(S'iris'
(dp1181
S'n_forests'
p1182
I100
sS'n_jobs'
p1183
I-1
sS'weight_extent'
p1184
I1
sS'n_trees'
p1185
I1
sS'k'
I5
sS'n_features_to_predict'
p1186
F0.5
sS'kmeans_type'
p1187
S'squishy'
p1188
sS'max_depth'
p1189
I4
sg11
(g13
S'\xb6\xa9\xf2&\x9c\xb6\xd5?'
tRp1190
g11
(g13
S'\x00\x00\x00\x00\x00\x00\x14@'
tRp1191
tp1192
a(S'breast_cancer'
(dp1193
S'n_forests'
p1194
I100
sS'n_jobs'
p1195
I-1
sS'weight_extent'
p1196
I1
sS'n_trees'
p1197
I1
sS'k'
I5
sS'n_features_to_predict'
p1198
F0.5
sS'kmeans_type'
p1199
S'squishy'
p1200
sS'max_depth'
p1201
I4
sg11
(g13
S'\x8a\xc5\xb9\xbf;7\xec?'
tRp1202
g11
(g13
S'333333\x07@'
tRp1203
tp1204
a(S'boston'
(dp1205
S'n_forests'
p1206
I100
sS'n_jobs'
p1207
I-1
sS'weight_extent'
p1208
I1
sS'n_trees'
p1209
I1
sS'k'
I6
sS'n_features_to_predict'
p1210
F0.5
sS'kmeans_type'
p1211
S'squishy'
p1212
sS'max_depth'
p1213
I4
sg11
(g13
S'+ny\xefk\x80\xd9?'
tRp1214
g11
(g13
S'\x9a\x99\x99\x99\x99\x99\x17@'
tRp1215
tp1216
a(S'diabetes'
(dp1217
S'n_forests'
p1218
I100
sS'n_jobs'
p1219
I-1
sS'weight_extent'
p1220
I1
sS'n_trees'
p1221
I1
sS'k'
I6
sS'n_features_to_predict'
p1222
F0.5
sS'kmeans_type'
p1223
S'squishy'
p1224
sS'max_depth'
p1225
I4
sg11
(g13
S'\x8b\x1b\xec\x98\xb1\x0f\xea?'
tRp1226
g11
(g13
S'\x00\x00\x00\x00\x00\x00\x10@'
tRp1227
tp1228
a(S'iris'
(dp1229
S'n_forests'
p1230
I100
sS'n_jobs'
p1231
I-1
sS'weight_extent'
p1232
I1
sS'n_trees'
p1233
I1
sS'k'
I6
sS'n_features_to_predict'
p1234
F0.5
sS'kmeans_type'
p1235
S'squishy'
p1236
sS'max_depth'
p1237
I4
sg11
(g13
S'[I@D\xc6\t\xd9?'
tRp1238
g11
(g13
S'\x00\x00\x00\x00\x00\x00\x18@'
tRp1239
tp1240
a(S'breast_cancer'
(dp1241
S'n_forests'
p1242
I100
sS'n_jobs'
p1243
I-1
sS'weight_extent'
p1244
I1
sS'n_trees'
p1245
I1
sS'k'
I6
sS'n_features_to_predict'
p1246
F0.5
sS'kmeans_type'
p1247
S'squishy'
p1248
sS'max_depth'
p1249
I4
sg11
(g13
S'\xd9\xed\t\xf4Nw\xe7?'
tRp1250
g11
(g13
S'333333\x0f@'
tRp1251
tp1252
a(S'boston'
(dp1253
S'n_forests'
p1254
I100
sS'n_jobs'
p1255
I-1
sS'weight_extent'
p1256
I1
sS'n_trees'
p1257
I1
sS'k'
I8
sS'n_features_to_predict'
p1258
F0.5
sS'kmeans_type'
p1259
S'squishy'
p1260
sS'max_depth'
p1261
I4
sg11
(g13
S'2E\x1e\xe8:\x14\xe2?'
tRp1262
g11
(g13
S'\x9a\x99\x99\x99\x99\x99\x1d@'
tRp1263
tp1264
a(S'diabetes'
(dp1265
S'n_forests'
p1266
I100
sS'n_jobs'
p1267
I-1
sS'weight_extent'
p1268
I1
sS'n_trees'
p1269
I1
sS'k'
I8
sS'n_features_to_predict'
p1270
F0.5
sS'kmeans_type'
p1271
S'squishy'
p1272
sS'max_depth'
p1273
I4
sg11
(g13
S'Pj\xb7\xa6\r\xd9\xe7?'
tRp1274
g11
(g13
S'\x00\x00\x00\x00\x00\x00\x1c@'
tRp1275
tp1276
a(S'iris'
(dp1277
S'n_forests'
p1278
I100
sS'n_jobs'
p1279
I-1
sS'weight_extent'
p1280
I1
sS'n_trees'
p1281
I1
sS'k'
I8
sS'n_features_to_predict'
p1282
F0.5
sS'kmeans_type'
p1283
S'squishy'
p1284
sS'max_depth'
p1285
I4
sg11
(g13
S'\xff\x9a4?\x83l\xd1?'
tRp1286
g11
(g13
S'\x00\x00\x00\x00\x00\x00\x1c@'
tRp1287
tp1288
a(S'breast_cancer'
(dp1289
S'n_forests'
p1290
I100
sS'n_jobs'
p1291
I-1
sS'weight_extent'
p1292
I1
sS'n_trees'
p1293
I1
sS'k'
I8
sS'n_features_to_predict'
p1294
F0.5
sS'kmeans_type'
p1295
S'squishy'
p1296
sS'max_depth'
p1297
I4
sg11
(g13
S'e\xee>\xf0\x9a\xfd\xeb?'
tRp1298
g11
(g13
S'\x00\x00\x00\x00\x00\x00\x08@'
tRp1299
tp1300
a(S'boston'
(dp1301
S'n_forests'
p1302
I100
sS'n_jobs'
p1303
I-1
sS'weight_extent'
p1304
I1
sS'n_trees'
p1305
I1
sS'k'
I10
sS'n_features_to_predict'
p1306
F0.5
sS'kmeans_type'
p1307
S'squishy'
p1308
sS'max_depth'
p1309
I4
sg11
(g13
S'\x00\xfd_\xe1\xeb\xd4\xdd?'
tRp1310
g11
(g13
S'\xcd\xcc\xcc\xcc\xcc\xcc @'
tRp1311
tp1312
a(S'diabetes'
(dp1313
S'n_forests'
p1314
I100
sS'n_jobs'
p1315
I-1
sS'weight_extent'
p1316
I1
sS'n_trees'
p1317
I1
sS'k'
I10
sS'n_features_to_predict'
p1318
F0.5
sS'kmeans_type'
p1319
S'squishy'
p1320
sS'max_depth'
p1321
I4
sg11
(g13
S'\x93\x06p\x80I\xba\xea?'
tRp1322
g11
(g13
S'\x00\x00\x00\x00\x00\x00\x18@'
tRp1323
tp1324
a(S'iris'
(dp1325
S'n_forests'
p1326
I100
sS'n_jobs'
p1327
I-1
sS'weight_extent'
p1328
I1
sS'n_trees'
p1329
I1
sS'k'
I10
sS'n_features_to_predict'
p1330
F0.5
sS'kmeans_type'
p1331
S'squishy'
p1332
sS'max_depth'
p1333
I4
sg11
(g13
S"\xb6[\xc3'\xd1\x1a\xd1?"
tRp1334
g11
(g13
S'\x00\x00\x00\x00\x00\x00"@'
tRp1335
tp1336
a(S'breast_cancer'
(dp1337
S'n_forests'
p1338
I100
sS'n_jobs'
p1339
I-1
sS'weight_extent'
p1340
I1
sS'n_trees'
p1341
I1
sS'k'
I10
sS'n_features_to_predict'
p1342
F0.5
sS'kmeans_type'
p1343
S'squishy'
p1344
sS'max_depth'
p1345
I4
sg11
(g13
S'#\x15\x85\x99\xf0\xbb\xed?'
tRp1346
g11
(g13
S'\x00\x00\x00\x00\x00\x00\x08@'
tRp1347
tp1348
a(S'boston'
(dp1349
S'n_forests'
p1350
I100
sS'n_jobs'
p1351
I-1
sS'weight_extent'
p1352
I1
sS'n_trees'
p1353
I1
sS'k'
I2
sS'n_features_to_predict'
p1354
F0.5
sS'kmeans_type'
p1355
S'squishy'
p1356
sS'max_depth'
p1357
I5
sg11
(g13
S'8\xfa\xac\xa8\x97\xa7\xec?'
tRp1358
g11
(g13
S'\x00\x00\x00\x00\x00\x00\x00@'
tRp1359
tp1360
a(S'diabetes'
(dp1361
S'n_forests'
p1362
I100
sS'n_jobs'
p1363
I-1
sS'weight_extent'
p1364
I1
sS'n_trees'
p1365
I1
sS'k'
I2
sS'n_features_to_predict'
p1366
F0.5
sS'kmeans_type'
p1367
S'squishy'
p1368
sS'max_depth'
p1369
I5
sg11
(g13
S'P\xb4R\xbd\x05X\xed?'
tRp1370
g11
(g13
S'\x00\x00\x00\x00\x00\x00\x00@'
tRp1371
tp1372
a(S'iris'
(dp1373
S'n_forests'
p1374
I100
sS'n_jobs'
p1375
I-1
sS'weight_extent'
p1376
I1
sS'n_trees'
p1377
I1
sS'k'
I2
sS'n_features_to_predict'
p1378
F0.5
sS'kmeans_type'
p1379
S'squishy'
p1380
sS'max_depth'
p1381
I5
sg11
(g13
S'\x9c\x8f\xdb\x01\xb6\r\xe9?'
tRp1382
g11
(g13
S'\x00\x00\x00\x00\x00\x00\x00@'
tRp1383
tp1384
a(S'breast_cancer'
(dp1385
S'n_forests'
p1386
I100
sS'n_jobs'
p1387
I-1
sS'weight_extent'
p1388
I1
sS'n_trees'
p1389
I1
sS'k'
I2
sS'n_features_to_predict'
p1390
F0.5
sS'kmeans_type'
p1391
S'squishy'
p1392
sS'max_depth'
p1393
I5
sg11
(g13
S'\x98\xdc\xba\n9o\xef?'
tRp1394
g11
(g13
S'\xcd\xcc\xcc\xcc\xcc\xcc\xfc?'
tRp1395
tp1396
a(S'boston'
(dp1397
S'n_forests'
p1398
I100
sS'n_jobs'
p1399
I-1
sS'weight_extent'
p1400
I1
sS'n_trees'
p1401
I1
sS'k'
I3
sS'n_features_to_predict'
p1402
F0.5
sS'kmeans_type'
p1403
S'squishy'
p1404
sS'max_depth'
p1405
I5
sg11
(g13
S'\xc0\\\x04\x86(\xbc\xe5?'
tRp1406
g11
(g13
S'\x00\x00\x00\x00\x00\x00\x08@'
tRp1407
tp1408
a(S'diabetes'
(dp1409
S'n_forests'
p1410
I100
sS'n_jobs'
p1411
I-1
sS'weight_extent'
p1412
I1
sS'n_trees'
p1413
I1
sS'k'
I3
sS'n_features_to_predict'
p1414
F0.5
sS'kmeans_type'
p1415
S'squishy'
p1416
sS'max_depth'
p1417
I5
sg11
(g13
S'\xedV4\xbc\xe8\x89\xec?'
tRp1418
g11
(g13
S'333333\x07@'
tRp1419
tp1420
a(S'iris'
(dp1421
S'n_forests'
p1422
I100
sS'n_jobs'
p1423
I-1
sS'weight_extent'
p1424
I1
sS'n_trees'
p1425
I1
sS'k'
I3
sS'n_features_to_predict'
p1426
F0.5
sS'kmeans_type'
p1427
S'squishy'
p1428
sS'max_depth'
p1429
I5
sg11
(g13
S'\xa3\xa7\xf6\xc7\xd5\x1a\xdc?'
tRp1430
g11
(g13
S'\x00\x00\x00\x00\x00\x00\x08@'
tRp1431
tp1432
a(S'breast_cancer'
(dp1433
S'n_forests'
p1434
I100
sS'n_jobs'
p1435
I-1
sS'weight_extent'
p1436
I1
sS'n_trees'
p1437
I1
sS'k'
I3
sS'n_features_to_predict'
p1438
F0.5
sS'kmeans_type'
p1439
S'squishy'
p1440
sS'max_depth'
p1441
I5
sg11
(g13
S'}F\xb8\x8c\xff\xae\xed?'
tRp1442
g11
(g13
S'\x00\x00\x00\x00\x00\x00\x08@'
tRp1443
tp1444
a(S'boston'
(dp1445
S'n_forests'
p1446
I100
sS'n_jobs'
p1447
I-1
sS'weight_extent'
p1448
I1
sS'n_trees'
p1449
I1
sS'k'
I4
sS'n_features_to_predict'
p1450
F0.5
sS'kmeans_type'
p1451
S'squishy'
p1452
sS'max_depth'
p1453
I5
sg11
(g13
S'\x0b%SzP\x92\xe2?'
tRp1454
g11
(g13
S'\x00\x00\x00\x00\x00\x00\x10@'
tRp1455
tp1456
a(S'diabetes'
(dp1457
S'n_forests'
p1458
I100
sS'n_jobs'
p1459
I-1
sS'weight_extent'
p1460
I1
sS'n_trees'
p1461
I1
sS'k'
I4
sS'n_features_to_predict'
p1462
F0.5
sS'kmeans_type'
p1463
S'squishy'
p1464
sS'max_depth'
p1465
I5
sg11
(g13
S'\xc3Y\xb3S\x08J\xec?'
tRp1466
g11
(g13
S'\x00\x00\x00\x00\x00\x00\x10@'
tRp1467
tp1468
a(S'iris'
(dp1469
S'n_forests'
p1470
I100
sS'n_jobs'
p1471
I-1
sS'weight_extent'
p1472
I1
sS'n_trees'
p1473
I1
sS'k'
I4
sS'n_features_to_predict'
p1474
F0.5
sS'kmeans_type'
p1475
S'squishy'
p1476
sS'max_depth'
p1477
I5
sg11
(g13
S'\x9d\x86\xd6h&V\xda?'
tRp1478
g11
(g13
S'\x00\x00\x00\x00\x00\x00\x10@'
tRp1479
tp1480
a(S'breast_cancer'
(dp1481
S'n_forests'
p1482
I100
sS'n_jobs'
p1483
I-1
sS'weight_extent'
p1484
I1
sS'n_trees'
p1485
I1
sS'k'
I4
sS'n_features_to_predict'
p1486
F0.5
sS'kmeans_type'
p1487
S'squishy'
p1488
sS'max_depth'
p1489
I5
sg11
(g13
S'\x18\x901\xa5\x08K\xec?'
tRp1490
g11
(g13
S'\x00\x00\x00\x00\x00\x00\x04@'
tRp1491
tp1492
a(S'boston'
(dp1493
S'n_forests'
p1494
I100
sS'n_jobs'
p1495
I-1
sS'weight_extent'
p1496
I1
sS'n_trees'
p1497
I1
sS'k'
I5
sS'n_features_to_predict'
p1498
F0.5
sS'kmeans_type'
p1499
S'squishy'
p1500
sS'max_depth'
p1501
I5
sg11
(g13
S'}}1\x1e\xce\xee\xe4?'
tRp1502
g11
(g13
S'\x00\x00\x00\x00\x00\x00\x14@'
tRp1503
tp1504
a(S'diabetes'
(dp1505
S'n_forests'
p1506
I100
sS'n_jobs'
p1507
I-1
sS'weight_extent'
p1508
I1
sS'n_trees'
p1509
I1
sS'k'
I5
sS'n_features_to_predict'
p1510
F0.5
sS'kmeans_type'
p1511
S'squishy'
p1512
sS'max_depth'
p1513
I5
sg11
(g13
S'&E\xc2?\x15\xd3\xe6?'
tRp1514
g11
(g13
S'333333\x13@'
tRp1515
tp1516
a(S'iris'
(dp1517
S'n_forests'
p1518
I100
sS'n_jobs'
p1519
I-1
sS'weight_extent'
p1520
I1
sS'n_trees'
p1521
I1
sS'k'
I5
sS'n_features_to_predict'
p1522
F0.5
sS'kmeans_type'
p1523
S'squishy'
p1524
sS'max_depth'
p1525
I5
sg11
(g13
S'|\xa9F\x9a;)\xe3?'
tRp1526
g11
(g13
S'\x00\x00\x00\x00\x00\x00\x14@'
tRp1527
tp1528
a(S'breast_cancer'
(dp1529
S'n_forests'
p1530
I100
sS'n_jobs'
p1531
I-1
sS'weight_extent'
p1532
I1
sS'n_trees'
p1533
I1
sS'k'
I5
sS'n_features_to_predict'
p1534
F0.5
sS'kmeans_type'
p1535
S'squishy'
p1536
sS'max_depth'
p1537
I5
sg11
(g13
S'\xd3\xb8\xa8XZ\x9a\xed?'
tRp1538
g11
(g13
S'\x9a\x99\x99\x99\x99\x99\t@'
tRp1539
tp1540
a(S'boston'
(dp1541
S'n_forests'
p1542
I100
sS'n_jobs'
p1543
I-1
sS'weight_extent'
p1544
I1
sS'n_trees'
p1545
I1
sS'k'
I6
sS'n_features_to_predict'
p1546
F0.5
sS'kmeans_type'
p1547
S'squishy'
p1548
sS'max_depth'
p1549
I5
sg11
(g13
S':vXHJ\xb3\xdd?'
tRp1550
g11
(g13
S'\x00\x00\x00\x00\x00\x00\x18@'
tRp1551
tp1552
a(S'diabetes'
(dp1553
S'n_forests'
p1554
I100
sS'n_jobs'
p1555
I-1
sS'weight_extent'
p1556
I1
sS'n_trees'
p1557
I1
sS'k'
I6
sS'n_features_to_predict'
p1558
F0.5
sS'kmeans_type'
p1559
S'squishy'
p1560
sS'max_depth'
p1561
I5
sg11
(g13
S'6\x08\xfb\xec\x02q\xe8?'
tRp1562
g11
(g13
S'ffffff\x12@'
tRp1563
tp1564
a(S'iris'
(dp1565
S'n_forests'
p1566
I100
sS'n_jobs'
p1567
I-1
sS'weight_extent'
p1568
I1
sS'n_trees'
p1569
I1
sS'k'
I6
sS'n_features_to_predict'
p1570
F0.5
sS'kmeans_type'
p1571
S'squishy'
p1572
sS'max_depth'
p1573
I5
sg11
(g13
S'\x0c\x80\xc6\x9fp\xbf\xd8?'
tRp1574
g11
(g13
S'\x00\x00\x00\x00\x00\x00\x15@'
tRp1575
tp1576
a(S'breast_cancer'
(dp1577
S'n_forests'
p1578
I100
sS'n_jobs'
p1579
I-1
sS'weight_extent'
p1580
I1
sS'n_trees'
p1581
I1
sS'k'
I6
sS'n_features_to_predict'
p1582
F0.5
sS'kmeans_type'
p1583
S'squishy'
p1584
sS'max_depth'
p1585
I5
sg11
(g13
S'\xaa\x04\xb6\x94\x1bn\xec?'
tRp1586
g11
(g13
S'333333\x11@'
tRp1587
tp1588
a(S'boston'
(dp1589
S'n_forests'
p1590
I100
sS'n_jobs'
p1591
I-1
sS'weight_extent'
p1592
I1
sS'n_trees'
p1593
I1
sS'k'
I8
sS'n_features_to_predict'
p1594
F0.5
sS'kmeans_type'
p1595
S'squishy'
p1596
sS'max_depth'
p1597
I5
sg11
(g13
S'\\\xf7\xc9\x8c\xbd\xe5\xe0?'
tRp1598
g11
(g13
S'333333\x1b@'
tRp1599
tp1600
a(S'diabetes'
(dp1601
S'n_forests'
p1602
I100
sS'n_jobs'
p1603
I-1
sS'weight_extent'
p1604
I1
sS'n_trees'
p1605
I1
sS'k'
I8
sS'n_features_to_predict'
p1606
F0.5
sS'kmeans_type'
p1607
S'squishy'
p1608
sS'max_depth'
p1609
I5
sg11
(g13
S'\xce\x89a\xfb7\xce\xe7?'
tRp1610
g11
(g13
S'\x00\x00\x00\x00\x00\x00\x18@'
tRp1611
tp1612
a(S'iris'
(dp1613
S'n_forests'
p1614
I100
sS'n_jobs'
p1615
I-1
sS'weight_extent'
p1616
I1
sS'n_trees'
p1617
I1
sS'k'
I8
sS'n_features_to_predict'
p1618
F0.5
sS'kmeans_type'
p1619
S'squishy'
p1620
sS'max_depth'
p1621
I5
sg11
(g13
S'N\xc4\xe1\xb10\n\xd3?'
tRp1622
g11
(g13
S'\x00\x00\x00\x00\x00\x00\x1c@'
tRp1623
tp1624
a(S'breast_cancer'
(dp1625
S'n_forests'
p1626
I100
sS'n_jobs'
p1627
I-1
sS'weight_extent'
p1628
I1
sS'n_trees'
p1629
I1
sS'k'
I8
sS'n_features_to_predict'
p1630
F0.5
sS'kmeans_type'
p1631
S'squishy'
p1632
sS'max_depth'
p1633
I5
sg11
(g13
S'\xe0\x94\xb0\x0bqE\xed?'
tRp1634
g11
(g13
S'ffffff\x10@'
tRp1635
tp1636
a(S'boston'
(dp1637
S'n_forests'
p1638
I100
sS'n_jobs'
p1639
I-1
sS'weight_extent'
p1640
I1
sS'n_trees'
p1641
I1
sS'k'
I10
sS'n_features_to_predict'
p1642
F0.5
sS'kmeans_type'
p1643
S'squishy'
p1644
sS'max_depth'
p1645
I5
sg11
(g13
S':w2\xea\xc6\x19\xd9?'
tRp1646
g11
(g13
S'ffffff"@'
tRp1647
tp1648
a(S'diabetes'
(dp1649
S'n_forests'
p1650
I100
sS'n_jobs'
p1651
I-1
sS'weight_extent'
p1652
I1
sS'n_trees'
p1653
I1
sS'k'
I10
sS'n_features_to_predict'
p1654
F0.5
sS'kmeans_type'
p1655
S'squishy'
p1656
sS'max_depth'
p1657
I5
sg11
(g13
S'\xa0L*14\xf2\xe7?'
tRp1658
g11
(g13
S'\x00\x00\x00\x00\x00\x00\x18@'
tRp1659
tp1660
a(S'iris'
(dp1661
S'n_forests'
p1662
I100
sS'n_jobs'
p1663
I-1
sS'weight_extent'
p1664
I1
sS'n_trees'
p1665
I1
sS'k'
I10
sS'n_features_to_predict'
p1666
F0.5
sS'kmeans_type'
p1667
S'squishy'
p1668
sS'max_depth'
p1669
I5
sg11
(g13
S'\xdeo\xa0\x1c6B\xd8?'
tRp1670
g11
(g13
S'\x00\x00\x00\x00\x00\x00#@'
tRp1671
tp1672
a(S'breast_cancer'
(dp1673
S'n_forests'
p1674
I100
sS'n_jobs'
p1675
I-1
sS'weight_extent'
p1676
I1
sS'n_trees'
p1677
I1
sS'k'
I10
sS'n_features_to_predict'
p1678
F0.5
sS'kmeans_type'
p1679
S'squishy'
p1680
sS'max_depth'
p1681
I5
sg11
(g13
S'\x8e\xe0RI\xa6\xc1\xec?'
tRp1682
g11
(g13
S'ffffff\x14@'
tRp1683
tp1684
a(S'boston'
(dp1685
S'n_forests'
p1686
I100
sS'n_jobs'
p1687
I-1
sS'weight_extent'
p1688
I1
sS'n_trees'
p1689
I1
sS'k'
I2
sS'n_features_to_predict'
p1690
F0.5
sS'kmeans_type'
p1691
S'squishy'
p1692
sS'max_depth'
p1693
I6
sg11
(g13
S'\x8eug\xef\x13X\xe9?'
tRp1694
g11
(g13
S'\x00\x00\x00\x00\x00\x00\x00@'
tRp1695
tp1696
a(S'diabetes'
(dp1697
S'n_forests'
p1698
I100
sS'n_jobs'
p1699
I-1
sS'weight_extent'
p1700
I1
sS'n_trees'
p1701
I1
sS'k'
I2
sS'n_features_to_predict'
p1702
F0.5
sS'kmeans_type'
p1703
S'squishy'
p1704
sS'max_depth'
p1705
I6
sg11
(g13
S"\x8a~'\x12\xc7\xb3\xec?"
tRp1706
g11
(g13
S'\x00\x00\x00\x00\x00\x00\x00@'
tRp1707
tp1708
a(S'iris'
(dp1709
S'n_forests'
p1710
I100
sS'n_jobs'
p1711
I-1
sS'weight_extent'
p1712
I1
sS'n_trees'
p1713
I1
sS'k'
I2
sS'n_features_to_predict'
p1714
F0.5
sS'kmeans_type'
p1715
S'squishy'
p1716
sS'max_depth'
p1717
I6
sg11
(g13
S'H\xd6\xc7\x87\xbd\r\xe5?'
tRp1718
g11
(g13
S'\x00\x00\x00\x00\x00\x00\x00@'
tRp1719
tp1720
a(S'breast_cancer'
(dp1721
S'n_forests'
p1722
I100
sS'n_jobs'
p1723
I-1
sS'weight_extent'
p1724
I1
sS'n_trees'
p1725
I1
sS'k'
I2
sS'n_features_to_predict'
p1726
F0.5
sS'kmeans_type'
p1727
S'squishy'
p1728
sS'max_depth'
p1729
I6
sg11
(g13
S'cW\x9d(\x89\x0b\xed?'
tRp1730
g11
(g13
S'ffffff\xfe?'
tRp1731
tp1732
a(S'boston'
(dp1733
S'n_forests'
p1734
I100
sS'n_jobs'
p1735
I-1
sS'weight_extent'
p1736
I1
sS'n_trees'
p1737
I1
sS'k'
I3
sS'n_features_to_predict'
p1738
F0.5
sS'kmeans_type'
p1739
S'squishy'
p1740
sS'max_depth'
p1741
I6
sg11
(g13
S'\xb6\xb1\x9f\xf8\x01\xf5\xe3?'
tRp1742
g11
(g13
S'\x00\x00\x00\x00\x00\x00\x08@'
tRp1743
tp1744
a(S'diabetes'
(dp1745
S'n_forests'
p1746
I100
sS'n_jobs'
p1747
I-1
sS'weight_extent'
p1748
I1
sS'n_trees'
p1749
I1
sS'k'
I3
sS'n_features_to_predict'
p1750
F0.5
sS'kmeans_type'
p1751
S'squishy'
p1752
sS'max_depth'
p1753
I6
sg11
(g13
S'\xba\x18\xa3\xcf\x9aj\xeb?'
tRp1754
g11
(g13
S'\x00\x00\x00\x00\x00\x00\x08@'
tRp1755
tp1756
a(S'iris'
(dp1757
S'n_forests'
p1758
I100
sS'n_jobs'
p1759
I-1
sS'weight_extent'
p1760
I1
sS'n_trees'
p1761
I1
sS'k'
I3
sS'n_features_to_predict'
p1762
F0.5
sS'kmeans_type'
p1763
S'squishy'
p1764
sS'max_depth'
p1765
I6
sg11
(g13
S'\xb7\x1c\xcb\x80\x13]\xda?'
tRp1766
g11
(g13
S'\x00\x00\x00\x00\x00\x00\x08@'
tRp1767
tp1768
a(S'breast_cancer'
(dp1769
S'n_forests'
p1770
I100
sS'n_jobs'
p1771
I-1
sS'weight_extent'
p1772
I1
sS'n_trees'
p1773
I1
sS'k'
I3
sS'n_features_to_predict'
p1774
F0.5
sS'kmeans_type'
p1775
S'squishy'
p1776
sS'max_depth'
p1777
I6
sg11
(g13
S'fE\x9d\xc2@r\xee?'
tRp1778
g11
(g13
S'333333\x07@'
tRp1779
tp1780
a(S'boston'
(dp1781
S'n_forests'
p1782
I100
sS'n_jobs'
p1783
I-1
sS'weight_extent'
p1784
I1
sS'n_trees'
p1785
I1
sS'k'
I4
sS'n_features_to_predict'
p1786
F0.5
sS'kmeans_type'
p1787
S'squishy'
p1788
sS'max_depth'
p1789
I6
sg11
(g13
S'2k\xb7`\xf3\xba\xe3?'
tRp1790
g11
(g13
S'\x00\x00\x00\x00\x00\x00\x10@'
tRp1791
tp1792
a(S'diabetes'
(dp1793
S'n_forests'
p1794
I100
sS'n_jobs'
p1795
I-1
sS'weight_extent'
p1796
I1
sS'n_trees'
p1797
I1
sS'k'
I4
sS'n_features_to_predict'
p1798
F0.5
sS'kmeans_type'
p1799
S'squishy'
p1800
sS'max_depth'
p1801
I6
sg11
(g13
S'\r\x8f\x1e\x8a\x1eJ\xec?'
tRp1802
g11
(g13
S'333333\x0b@'
tRp1803
tp1804
a(S'iris'
(dp1805
S'n_forests'
p1806
I100
sS'n_jobs'
p1807
I-1
sS'weight_extent'
p1808
I1
sS'n_trees'
p1809
I1
sS'k'
I4
sS'n_features_to_predict'
p1810
F0.5
sS'kmeans_type'
p1811
S'squishy'
p1812
sS'max_depth'
p1813
I6
sg11
(g13
S'Y>I!\xfa\xa0\xd6?'
tRp1814
g11
(g13
S'\x00\x00\x00\x00\x00\x00\x10@'
tRp1815
tp1816
a(S'breast_cancer'
(dp1817
S'n_forests'
p1818
I100
sS'n_jobs'
p1819
I-1
sS'weight_extent'
p1820
I1
sS'n_trees'
p1821
I1
sS'k'
I4
sS'n_features_to_predict'
p1822
F0.5
sS'kmeans_type'
p1823
S'squishy'
p1824
sS'max_depth'
p1825
I6
sg11
(g13
S'x\x0f\x1bkU\x88\xee?'
tRp1826
g11
(g13
S'\xcd\xcc\xcc\xcc\xcc\xcc\x0c@'
tRp1827
tp1828
a(S'boston'
(dp1829
S'n_forests'
p1830
I100
sS'n_jobs'
p1831
I-1
sS'weight_extent'
p1832
I1
sS'n_trees'
p1833
I1
sS'k'
I5
sS'n_features_to_predict'
p1834
F0.5
sS'kmeans_type'
p1835
S'squishy'
p1836
sS'max_depth'
p1837
I6
sg11
(g13
S'r\xab\xebI"O\xe2?'
tRp1838
g11
(g13
S'\x00\x00\x00\x00\x00\x00\x14@'
tRp1839
tp1840
a(S'diabetes'
(dp1841
S'n_forests'
p1842
I100
sS'n_jobs'
p1843
I-1
sS'weight_extent'
p1844
I1
sS'n_trees'
p1845
I1
sS'k'
I5
sS'n_features_to_predict'
p1846
F0.5
sS'kmeans_type'
p1847
S'squishy'
p1848
sS'max_depth'
p1849
I6
sg11
(g13
S'X\xab\xa5\xc8B\xf8\xe8?'
tRp1850
g11
(g13
S'\x00\x00\x00\x00\x00\x00\x12@'
tRp1851
tp1852
a(S'iris'
(dp1853
S'n_forests'
p1854
I100
sS'n_jobs'
p1855
I-1
sS'weight_extent'
p1856
I1
sS'n_trees'
p1857
I1
sS'k'
I5
sS'n_features_to_predict'
p1858
F0.5
sS'kmeans_type'
p1859
S'squishy'
p1860
sS'max_depth'
p1861
I6
sg11
(g13
S':vk?\xdf\r\xe3?'
tRp1862
g11
(g13
S'\x00\x00\x00\x00\x00\x00\x14@'
tRp1863
tp1864
a(S'breast_cancer'
(dp1865
S'n_forests'
p1866
I100
sS'n_jobs'
p1867
I-1
sS'weight_extent'
p1868
I1
sS'n_trees'
p1869
I1
sS'k'
I5
sS'n_features_to_predict'
p1870
F0.5
sS'kmeans_type'
p1871
S'squishy'
p1872
sS'max_depth'
p1873
I6
sg11
(g13
S'2*\x1e9\x8a\x01\xee?'
tRp1874
g11
(g13
S'\x00\x00\x00\x00\x00\x00\x10@'
tRp1875
tp1876
a(S'boston'
(dp1877
S'n_forests'
p1878
I100
sS'n_jobs'
p1879
I-1
sS'weight_extent'
p1880
I1
sS'n_trees'
p1881
I1
sS'k'
I6
sS'n_features_to_predict'
p1882
F0.5
sS'kmeans_type'
p1883
S'squishy'
p1884
sS'max_depth'
p1885
I6
sg11
(g13
S'v\x1bZ\xc1\xdf\xb0\xe5?'
tRp1886
g11
(g13
S'\x9a\x99\x99\x99\x99\x99\x15@'
tRp1887
tp1888
a(S'diabetes'
(dp1889
S'n_forests'
p1890
I100
sS'n_jobs'
p1891
I-1
sS'weight_extent'
p1892
I1
sS'n_trees'
p1893
I1
sS'k'
I6
sS'n_features_to_predict'
p1894
F0.5
sS'kmeans_type'
p1895
S'squishy'
p1896
sS'max_depth'
p1897
I6
sg11
(g13
S'\xd7\x83\x06\x7f\xe7\xba\xe8?'
tRp1898
g11
(g13
S'\x00\x00\x00\x00\x00\x00\x14@'
tRp1899
tp1900
a(S'iris'
(dp1901
S'n_forests'
p1902
I100
sS'n_jobs'
p1903
I-1
sS'weight_extent'
p1904
I1
sS'n_trees'
p1905
I1
sS'k'
I6
sS'n_features_to_predict'
p1906
F0.5
sS'kmeans_type'
p1907
S'squishy'
p1908
sS'max_depth'
p1909
I6
sg11
(g13
S'\x8b\xcb_Q\x80E\xd6?'
tRp1910
g11
(g13
S'\x00\x00\x00\x00\x00\x00\x18@'
tRp1911
tp1912
a(S'breast_cancer'
(dp1913
S'n_forests'
p1914
I100
sS'n_jobs'
p1915
I-1
sS'weight_extent'
p1916
I1
sS'n_trees'
p1917
I1
sS'k'
I6
sS'n_features_to_predict'
p1918
F0.5
sS'kmeans_type'
p1919
S'squishy'
p1920
sS'max_depth'
p1921
I6
sg11
(g13
S'\xb5\x00\x1a\x8b\xef\xec\xed?'
tRp1922
g11
(g13
S'\x00\x00\x00\x00\x00\x00\x14@'
tRp1923
tp1924
a(S'boston'
(dp1925
S'n_forests'
p1926
I100
sS'n_jobs'
p1927
I-1
sS'weight_extent'
p1928
I1
sS'n_trees'
p1929
I1
sS'k'
I8
sS'n_features_to_predict'
p1930
F0.5
sS'kmeans_type'
p1931
S'squishy'
p1932
sS'max_depth'
p1933
I6
sg11
(g13
S'B\x05\x06x\xbc\x04\xe1?'
tRp1934
g11
(g13
S'\x9a\x99\x99\x99\x99\x99\x1d@'
tRp1935
tp1936
a(S'diabetes'
(dp1937
S'n_forests'
p1938
I100
sS'n_jobs'
p1939
I-1
sS'weight_extent'
p1940
I1
sS'n_trees'
p1941
I1
sS'k'
I8
sS'n_features_to_predict'
p1942
F0.5
sS'kmeans_type'
p1943
S'squishy'
p1944
sS'max_depth'
p1945
I6
sg11
(g13
S'6\x06\xc5\x98\xe4\xc6\xea?'
tRp1946
g11
(g13
S'\x00\x00\x00\x00\x00\x00\x1c@'
tRp1947
tp1948
a(S'iris'
(dp1949
S'n_forests'
p1950
I100
sS'n_jobs'
p1951
I-1
sS'weight_extent'
p1952
I1
sS'n_trees'
p1953
I1
sS'k'
I8
sS'n_features_to_predict'
p1954
F0.5
sS'kmeans_type'
p1955
S'squishy'
p1956
sS'max_depth'
p1957
I6
sg11
(g13
S']\x1aJ\x0f\x84\x86\xd1?'
tRp1958
g11
(g13
S'\x00\x00\x00\x00\x00\x00 @'
tRp1959
tp1960
a(S'breast_cancer'
(dp1961
S'n_forests'
p1962
I100
sS'n_jobs'
p1963
I-1
sS'weight_extent'
p1964
I1
sS'n_trees'
p1965
I1
sS'k'
I8
sS'n_features_to_predict'
p1966
F0.5
sS'kmeans_type'
p1967
S'squishy'
p1968
sS'max_depth'
p1969
I6
sg11
(g13
S'\xc6\xd7\xcb\x84\xa0\xe1\xed?'
tRp1970
g11
(g13
S'ffffff\x12@'
tRp1971
tp1972
a(S'boston'
(dp1973
S'n_forests'
p1974
I100
sS'n_jobs'
p1975
I-1
sS'weight_extent'
p1976
I1
sS'n_trees'
p1977
I1
sS'k'
I10
sS'n_features_to_predict'
p1978
F0.5
sS'kmeans_type'
p1979
S'squishy'
p1980
sS'max_depth'
p1981
I6
sg11
(g13
S'\x08(\xbb\tIz\xdd?'
tRp1982
g11
(g13
S'333333"@'
tRp1983
tp1984
a(S'diabetes'
(dp1985
S'n_forests'
p1986
I100
sS'n_jobs'
p1987
I-1
sS'weight_extent'
p1988
I1
sS'n_trees'
p1989
I1
sS'k'
I10
sS'n_features_to_predict'
p1990
F0.5
sS'kmeans_type'
p1991
S'squishy'
p1992
sS'max_depth'
p1993
I6
sg11
(g13
S'\xfd\x86\x1c\xa4\t\xb6\xe8?'
tRp1994
g11
(g13
S'\x00\x00\x00\x00\x00\x00 @'
tRp1995
tp1996
a(S'iris'
(dp1997
S'n_forests'
p1998
I100
sS'n_jobs'
p1999
I-1
sS'weight_extent'
p2000
I1
sS'n_trees'
p2001
I1
sS'k'
I10
sS'n_features_to_predict'
p2002
F0.5
sS'kmeans_type'
p2003
S'squishy'
p2004
sS'max_depth'
p2005
I6
sg11
(g13
S'\xdf\xa2Fn/\xe1\xde?'
tRp2006
g11
(g13
S'\x00\x00\x00\x00\x00\x00#@'
tRp2007
tp2008
a(S'breast_cancer'
(dp2009
S'n_forests'
p2010
I100
sS'n_jobs'
p2011
I-1
sS'weight_extent'
p2012
I1
sS'n_trees'
p2013
I1
sS'k'
I10
sS'n_features_to_predict'
p2014
F0.5
sS'kmeans_type'
p2015
S'squishy'
p2016
sS'max_depth'
p2017
I6
sg11
(g13
S'\xa3\xdb\x1f\xbc\x80\x17\xe7?'
tRp2018
g11
(g13
S'\xcd\xcc\xcc\xcc\xcc\xcc\x14@'
tRp2019
tp2020
a(S'boston'
(dp2021
S'n_forests'
p2022
I100
sS'n_jobs'
p2023
I-1
sS'weight_extent'
p2024
I2
sS'n_trees'
p2025
I1
sS'k'
I2
sS'n_features_to_predict'
p2026
F0.5
sS'kmeans_type'
p2027
S'squishy'
p2028
sS'max_depth'
p2029
I4
sg11
(g13
S'Uy!f&g\xe9?'
tRp2030
g11
(g13
S'\x00\x00\x00\x00\x00\x00\x00@'
tRp2031
tp2032
a(S'diabetes'
(dp2033
S'n_forests'
p2034
I100
sS'n_jobs'
p2035
I-1
sS'weight_extent'
p2036
I2
sS'n_trees'
p2037
I1
sS'k'
I2
sS'n_features_to_predict'
p2038
F0.5
sS'kmeans_type'
p2039
S'squishy'
p2040
sS'max_depth'
p2041
I4
sg11
(g13
S'\x86\x04(A\xb7\x86\xed?'
tRp2042
g11
(g13
S'\x00\x00\x00\x00\x00\x00\x00@'
tRp2043
tp2044
a(S'iris'
(dp2045
S'n_forests'
p2046
I100
sS'n_jobs'
p2047
I-1
sS'weight_extent'
p2048
I2
sS'n_trees'
p2049
I1
sS'k'
I2
sS'n_features_to_predict'
p2050
F0.5
sS'kmeans_type'
p2051
S'squishy'
p2052
sS'max_depth'
p2053
I4
sg11
(g13
S'\x88~\xec\x9e\x11\x81\xe4?'
tRp2054
g11
(g13
S'\x00\x00\x00\x00\x00\x00\x00@'
tRp2055
tp2056
a(S'breast_cancer'
(dp2057
S'n_forests'
p2058
I100
sS'n_jobs'
p2059
I-1
sS'weight_extent'
p2060
I2
sS'n_trees'
p2061
I1
sS'k'
I2
sS'n_features_to_predict'
p2062
F0.5
sS'kmeans_type'
p2063
S'squishy'
p2064
sS'max_depth'
p2065
I4
sg11
(g13
S'~Z=X$^\xed?'
tRp2066
g11
(g13
S'\x00\x00\x00\x00\x00\x00\x00@'
tRp2067
tp2068
a(S'boston'
(dp2069
S'n_forests'
p2070
I100
sS'n_jobs'
p2071
I-1
sS'weight_extent'
p2072
I2
sS'n_trees'
p2073
I1
sS'k'
I3
sS'n_features_to_predict'
p2074
F0.5
sS'kmeans_type'
p2075
S'squishy'
p2076
sS'max_depth'
p2077
I4
sg11
(g13
S'\xa5f\xa4U\x8e\xaf\xe5?'
tRp2078
g11
(g13
S'\x00\x00\x00\x00\x00\x00\x08@'
tRp2079
tp2080
a(S'diabetes'
(dp2081
S'n_forests'
p2082
I100
sS'n_jobs'
p2083
I-1
sS'weight_extent'
p2084
I2
sS'n_trees'
p2085
I1
sS'k'
I3
sS'n_features_to_predict'
p2086
F0.5
sS'kmeans_type'
p2087
S'squishy'
p2088
sS'max_depth'
p2089
I4
sg11
(g13
S'\xf0\x18\xc2\x1a~9\xef?'
tRp2090
g11
(g13
S'\x00\x00\x00\x00\x00\x00\x08@'
tRp2091
tp2092
a(S'iris'
(dp2093
S'n_forests'
p2094
I100
sS'n_jobs'
p2095
I-1
sS'weight_extent'
p2096
I2
sS'n_trees'
p2097
I1
sS'k'
I3
sS'n_features_to_predict'
p2098
F0.5
sS'kmeans_type'
p2099
S'squishy'
p2100
sS'max_depth'
p2101
I4
sg11
(g13
S'\xb2\xb2\xe6\xe7\xb1\\\xd9?'
tRp2102
g11
(g13
S'\x00\x00\x00\x00\x00\x00\x08@'
tRp2103
tp2104
a(S'breast_cancer'
(dp2105
S'n_forests'
p2106
I100
sS'n_jobs'
p2107
I-1
sS'weight_extent'
p2108
I2
sS'n_trees'
p2109
I1
sS'k'
I3
sS'n_features_to_predict'
p2110
F0.5
sS'kmeans_type'
p2111
S'squishy'
p2112
sS'max_depth'
p2113
I4
sg11
(g13
S'*s#\xbfu\x9c\xef?'
tRp2114
g11
(g13
S'\x00\x00\x00\x00\x00\x00\x00@'
tRp2115
tp2116
a(S'boston'
(dp2117
S'n_forests'
p2118
I100
sS'n_jobs'
p2119
I-1
sS'weight_extent'
p2120
I2
sS'n_trees'
p2121
I1
sS'k'
I4
sS'n_features_to_predict'
p2122
F0.5
sS'kmeans_type'
p2123
S'squishy'
p2124
sS'max_depth'
p2125
I4
sg11
(g13
S'g\xe4\x8e#\xa0Y\xe5?'
tRp2126
g11
(g13
S'\x00\x00\x00\x00\x00\x00\x10@'
tRp2127
tp2128
a(S'diabetes'
(dp2129
S'n_forests'
p2130
I100
sS'n_jobs'
p2131
I-1
sS'weight_extent'
p2132
I2
sS'n_trees'
p2133
I1
sS'k'
I4
sS'n_features_to_predict'
p2134
F0.5
sS'kmeans_type'
p2135
S'squishy'
p2136
sS'max_depth'
p2137
I4
sg11
(g13
S'g\xb2\xfeHRx\xe5?'
tRp2138
g11
(g13
S'\x00\x00\x00\x00\x00\x00\x10@'
tRp2139
tp2140
a(S'iris'
(dp2141
S'n_forests'
p2142
I100
sS'n_jobs'
p2143
I-1
sS'weight_extent'
p2144
I2
sS'n_trees'
p2145
I1
sS'k'
I4
sS'n_features_to_predict'
p2146
F0.5
sS'kmeans_type'
p2147
S'squishy'
p2148
sS'max_depth'
p2149
I4
sg11
(g13
S'\x91\xd7a\xa3\x05^\xdd?'
tRp2150
g11
(g13
S'\x00\x00\x00\x00\x00\x00\x10@'
tRp2151
tp2152
a(S'breast_cancer'
(dp2153
S'n_forests'
p2154
I100
sS'n_jobs'
p2155
I-1
sS'weight_extent'
p2156
I2
sS'n_trees'
p2157
I1
sS'k'
I4
sS'n_features_to_predict'
p2158
F0.5
sS'kmeans_type'
p2159
S'squishy'
p2160
sS'max_depth'
p2161
I4
sg11
(g13
S'\xd2*!\xcbf\xaf\xed?'
tRp2162
g11
(g13
S'\xcd\xcc\xcc\xcc\xcc\xcc\x08@'
tRp2163
tp2164
a(S'boston'
(dp2165
S'n_forests'
p2166
I100
sS'n_jobs'
p2167
I-1
sS'weight_extent'
p2168
I2
sS'n_trees'
p2169
I1
sS'k'
I5
sS'n_features_to_predict'
p2170
F0.5
sS'kmeans_type'
p2171
S'squishy'
p2172
sS'max_depth'
p2173
I4
sg11
(g13
S'\xc6@K\xbb\xd37\xe1?'
tRp2174
g11
(g13
S'\x00\x00\x00\x00\x00\x00\x14@'
tRp2175
tp2176
a(S'diabetes'
(dp2177
S'n_forests'
p2178
I100
sS'n_jobs'
p2179
I-1
sS'weight_extent'
p2180
I2
sS'n_trees'
p2181
I1
sS'k'
I5
sS'n_features_to_predict'
p2182
F0.5
sS'kmeans_type'
p2183
S'squishy'
p2184
sS'max_depth'
p2185
I4
sg11
(g13
S'%\xf3L\xf3\xe9d\xe6?'
tRp2186
g11
(g13
S'333333\x13@'
tRp2187
tp2188
a(S'iris'
(dp2189
S'n_forests'
p2190
I100
sS'n_jobs'
p2191
I-1
sS'weight_extent'
p2192
I2
sS'n_trees'
p2193
I1
sS'k'
I5
sS'n_features_to_predict'
p2194
F0.5
sS'kmeans_type'
p2195
S'squishy'
p2196
sS'max_depth'
p2197
I4
sg11
(g13
S'@\x0c\xb4\xa0iH\xd8?'
tRp2198
g11
(g13
S'\x00\x00\x00\x00\x00\x00\x14@'
tRp2199
tp2200
a(S'breast_cancer'
(dp2201
S'n_forests'
p2202
I100
sS'n_jobs'
p2203
I-1
sS'weight_extent'
p2204
I2
sS'n_trees'
p2205
I1
sS'k'
I5
sS'n_features_to_predict'
p2206
F0.5
sS'kmeans_type'
p2207
S'squishy'
p2208
sS'max_depth'
p2209
I4
sg11
(g13
S'\xf66\xf9\x06E\xb4\xe9?'
tRp2210
g11
(g13
S'\xcd\xcc\xcc\xcc\xcc\xcc\x04@'
tRp2211
tp2212
a(S'boston'
(dp2213
S'n_forests'
p2214
I100
sS'n_jobs'
p2215
I-1
sS'weight_extent'
p2216
I2
sS'n_trees'
p2217
I1
sS'k'
I6
sS'n_features_to_predict'
p2218
F0.5
sS'kmeans_type'
p2219
S'squishy'
p2220
sS'max_depth'
p2221
I4
sg11
(g13
S'\x1c`cUj\x80\xe1?'
tRp2222
g11
(g13
S'333333\x17@'
tRp2223
tp2224
a(S'diabetes'
(dp2225
S'n_forests'
p2226
I100
sS'n_jobs'
p2227
I-1
sS'weight_extent'
p2228
I2
sS'n_trees'
p2229
I1
sS'k'
I6
sS'n_features_to_predict'
p2230
F0.5
sS'kmeans_type'
p2231
S'squishy'
p2232
sS'max_depth'
p2233
I4
sg11
(g13
S'\xda\xf0\tx@\xd6\xeb?'
tRp2234
g11
(g13
S'\x9a\x99\x99\x99\x99\x99\x11@'
tRp2235
tp2236
a(S'iris'
(dp2237
S'n_forests'
p2238
I100
sS'n_jobs'
p2239
I-1
sS'weight_extent'
p2240
I2
sS'n_trees'
p2241
I1
sS'k'
I6
sS'n_features_to_predict'
p2242
F0.5
sS'kmeans_type'
p2243
S'squishy'
p2244
sS'max_depth'
p2245
I4
sg11
(g13
S'\xaf/\x1d\x9en\x03\xd3?'
tRp2246
g11
(g13
S'\x00\x00\x00\x00\x00\x00\x17@'
tRp2247
tp2248
a(S'breast_cancer'
(dp2249
S'n_forests'
p2250
I100
sS'n_jobs'
p2251
I-1
sS'weight_extent'
p2252
I2
sS'n_trees'
p2253
I1
sS'k'
I6
sS'n_features_to_predict'
p2254
F0.5
sS'kmeans_type'
p2255
S'squishy'
p2256
sS'max_depth'
p2257
I4
sg11
(g13
S'b\xb7[\x1do]\xed?'
tRp2258
g11
(g13
S'\x9a\x99\x99\x99\x99\x99\r@'
tRp2259
tp2260
a(S'boston'
(dp2261
S'n_forests'
p2262
I100
sS'n_jobs'
p2263
I-1
sS'weight_extent'
p2264
I2
sS'n_trees'
p2265
I1
sS'k'
I8
sS'n_features_to_predict'
p2266
F0.5
sS'kmeans_type'
p2267
S'squishy'
p2268
sS'max_depth'
p2269
I4
sg11
(g13
S'\xea\xbd\x9e\xd9\x92\x8b\xdb?'
tRp2270
g11
(g13
S'\x00\x00\x00\x00\x00\x00 @'
tRp2271
tp2272
a(S'diabetes'
(dp2273
S'n_forests'
p2274
I100
sS'n_jobs'
p2275
I-1
sS'weight_extent'
p2276
I2
sS'n_trees'
p2277
I1
sS'k'
I8
sS'n_features_to_predict'
p2278
F0.5
sS'kmeans_type'
p2279
S'squishy'
p2280
sS'max_depth'
p2281
I4
sg11
(g13
S'y\xb2\xe6\x9e\xeah\xe6?'
tRp2282
g11
(g13
S'\xcd\xcc\xcc\xcc\xcc\xcc\x1a@'
tRp2283
tp2284
a(S'iris'
(dp2285
S'n_forests'
p2286
I100
sS'n_jobs'
p2287
I-1
sS'weight_extent'
p2288
I2
sS'n_trees'
p2289
I1
sS'k'
I8
sS'n_features_to_predict'
p2290
F0.5
sS'kmeans_type'
p2291
S'squishy'
p2292
sS'max_depth'
p2293
I4
sg11
(g13
S'm$\x8e[\\H\xdb?'
tRp2294
g11
(g13
S'\x00\x00\x00\x00\x00\x00\x1e@'
tRp2295
tp2296
a(S'breast_cancer'
(dp2297
S'n_forests'
p2298
I100
sS'n_jobs'
p2299
I-1
sS'weight_extent'
p2300
I2
sS'n_trees'
p2301
I1
sS'k'
I8
sS'n_features_to_predict'
p2302
F0.5
sS'kmeans_type'
p2303
S'squishy'
p2304
sS'max_depth'
p2305
I4
sg11
(g13
S'\xa0{\xf5\x9b\xbc\xef\xeb?'
tRp2306
g11
(g13
S'333333\x07@'
tRp2307
tp2308
a(S'boston'
(dp2309
S'n_forests'
p2310
I100
sS'n_jobs'
p2311
I-1
sS'weight_extent'
p2312
I2
sS'n_trees'
p2313
I1
sS'k'
I10
sS'n_features_to_predict'
p2314
F0.5
sS'kmeans_type'
p2315
S'squishy'
p2316
sS'max_depth'
p2317
I4
sg11
(g13
S'}\x96\xf2\x01U\xac\xde?'
tRp2318
g11
(g13
S'\x00\x00\x00\x00\x00\x00\x1c@'
tRp2319
tp2320
a(S'diabetes'
(dp2321
S'n_forests'
p2322
I100
sS'n_jobs'
p2323
I-1
sS'weight_extent'
p2324
I2
sS'n_trees'
p2325
I1
sS'k'
I10
sS'n_features_to_predict'
p2326
F0.5
sS'kmeans_type'
p2327
S'squishy'
p2328
sS'max_depth'
p2329
I4
sg11
(g13
S'2H\xec\xcd\x8c\x08\xe8?'
tRp2330
g11
(g13
S'\xcd\xcc\xcc\xcc\xcc\xcc @'
tRp2331
tp2332
a(S'iris'
(dp2333
S'n_forests'
p2334
I100
sS'n_jobs'
p2335
I-1
sS'weight_extent'
p2336
I2
sS'n_trees'
p2337
I1
sS'k'
I10
sS'n_features_to_predict'
p2338
F0.5
sS'kmeans_type'
p2339
S'squishy'
p2340
sS'max_depth'
p2341
I4
sg11
(g13
S'\xb0\xdb\x10`\x01\xc0\xce?'
tRp2342
g11
(g13
S'\x00\x00\x00\x00\x00\x00$@'
tRp2343
tp2344
a(S'breast_cancer'
(dp2345
S'n_forests'
p2346
I100
sS'n_jobs'
p2347
I-1
sS'weight_extent'
p2348
I2
sS'n_trees'
p2349
I1
sS'k'
I10
sS'n_features_to_predict'
p2350
F0.5
sS'kmeans_type'
p2351
S'squishy'
p2352
sS'max_depth'
p2353
I4
sg11
(g13
S'U\x15\xba\x8e\xb6$\xec?'
tRp2354
g11
(g13
S'ffffff\x12@'
tRp2355
tp2356
a(S'boston'
(dp2357
S'n_forests'
p2358
I100
sS'n_jobs'
p2359
I-1
sS'weight_extent'
p2360
I2
sS'n_trees'
p2361
I1
sS'k'
I2
sS'n_features_to_predict'
p2362
F0.5
sS'kmeans_type'
p2363
S'squishy'
p2364
sS'max_depth'
p2365
I5
sg11
(g13
S'Aj{\xd2\x83\xbc\xe8?'
tRp2366
g11
(g13
S'\x00\x00\x00\x00\x00\x00\x00@'
tRp2367
tp2368
a(S'diabetes'
(dp2369
S'n_forests'
p2370
I100
sS'n_jobs'
p2371
I-1
sS'weight_extent'
p2372
I2
sS'n_trees'
p2373
I1
sS'k'
I2
sS'n_features_to_predict'
p2374
F0.5
sS'kmeans_type'
p2375
S'squishy'
p2376
sS'max_depth'
p2377
I5
sg11
(g13
S'\xd6\x90$\x05\x04f\xed?'
tRp2378
g11
(g13
S'\x00\x00\x00\x00\x00\x00\x00@'
tRp2379
tp2380
a(S'iris'
(dp2381
S'n_forests'
p2382
I100
sS'n_jobs'
p2383
I-1
sS'weight_extent'
p2384
I2
sS'n_trees'
p2385
I1
sS'k'
I2
sS'n_features_to_predict'
p2386
F0.5
sS'kmeans_type'
p2387
S'squishy'
p2388
sS'max_depth'
p2389
I5
sg11
(g13
S'\x0e\xf6\xb4"\xc9\xbc\xe7?'
tRp2390
g11
(g13
S'\x00\x00\x00\x00\x00\x00\x00@'
tRp2391
tp2392
a(S'breast_cancer'
(dp2393
S'n_forests'
p2394
I100
sS'n_jobs'
p2395
I-1
sS'weight_extent'
p2396
I2
sS'n_trees'
p2397
I1
sS'k'
I2
sS'n_features_to_predict'
p2398
F0.5
sS'kmeans_type'
p2399
S'squishy'
p2400
sS'max_depth'
p2401
I5
sg11
(g13
S'\x9e\xa0\x05\xc7\x0f\xb4\xef?'
tRp2402
g11
(g13
S'333333\xf3?'
tRp2403
tp2404
a(S'boston'
(dp2405
S'n_forests'
p2406
I100
sS'n_jobs'
p2407
I-1
sS'weight_extent'
p2408
I2
sS'n_trees'
p2409
I1
sS'k'
I3
sS'n_features_to_predict'
p2410
F0.5
sS'kmeans_type'
p2411
S'squishy'
p2412
sS'max_depth'
p2413
I5
sg11
(g13
S'0[5X6\xcc\xe5?'
tRp2414
g11
(g13
S'\x00\x00\x00\x00\x00\x00\x08@'
tRp2415
tp2416
a(S'diabetes'
(dp2417
S'n_forests'
p2418
I100
sS'n_jobs'
p2419
I-1
sS'weight_extent'
p2420
I2
sS'n_trees'
p2421
I1
sS'k'
I3
sS'n_features_to_predict'
p2422
F0.5
sS'kmeans_type'
p2423
S'squishy'
p2424
sS'max_depth'
p2425
I5
sg11
(g13
S'S\xfb\xf8\xe0\x11\xed\xeb?'
tRp2426
g11
(g13
S'\x00\x00\x00\x00\x00\x00\x08@'
tRp2427
tp2428
a(S'iris'
(dp2429
S'n_forests'
p2430
I100
sS'n_jobs'
p2431
I-1
sS'weight_extent'
p2432
I2
sS'n_trees'
p2433
I1
sS'k'
I3
sS'n_features_to_predict'
p2434
F0.5
sS'kmeans_type'
p2435
S'squishy'
p2436
sS'max_depth'
p2437
I5
sg11
(g13
S'b\x06\x16\x07\xf8v\xdb?'
tRp2438
g11
(g13
S'\x00\x00\x00\x00\x00\x00\x08@'
tRp2439
tp2440
a(S'breast_cancer'
(dp2441
S'n_forests'
p2442
I100
sS'n_jobs'
p2443
I-1
sS'weight_extent'
p2444
I2
sS'n_trees'
p2445
I1
sS'k'
I3
sS'n_features_to_predict'
p2446
F0.5
sS'kmeans_type'
p2447
S'squishy'
p2448
sS'max_depth'
p2449
I5
sg11
(g13
S'\xb2\xcc\xa7\xf8<l\xec?'
tRp2450
g11
(g13
S'\x00\x00\x00\x00\x00\x00\x08@'
tRp2451
tp2452
a(S'boston'
(dp2453
S'n_forests'
p2454
I100
sS'n_jobs'
p2455
I-1
sS'weight_extent'
p2456
I2
sS'n_trees'
p2457
I1
sS'k'
I4
sS'n_features_to_predict'
p2458
F0.5
sS'kmeans_type'
p2459
S'squishy'
p2460
sS'max_depth'
p2461
I5
sg11
(g13
S'\xc2\xfa.\x02X\xef\xe0?'
tRp2462
g11
(g13
S'\x00\x00\x00\x00\x00\x00\x10@'
tRp2463
tp2464
a(S'diabetes'
(dp2465
S'n_forests'
p2466
I100
sS'n_jobs'
p2467
I-1
sS'weight_extent'
p2468
I2
sS'n_trees'
p2469
I1
sS'k'
I4
sS'n_features_to_predict'
p2470
F0.5
sS'kmeans_type'
p2471
S'squishy'
p2472
sS'max_depth'
p2473
I5
sg11
(g13
S'0[\xf0Y\xee\x03\xec?'
tRp2474
g11
(g13
S'\xcd\xcc\xcc\xcc\xcc\xcc\x08@'
tRp2475
tp2476
a(S'iris'
(dp2477
S'n_forests'
p2478
I100
sS'n_jobs'
p2479
I-1
sS'weight_extent'
p2480
I2
sS'n_trees'
p2481
I1
sS'k'
I4
sS'n_features_to_predict'
p2482
F0.5
sS'kmeans_type'
p2483
S'squishy'
p2484
sS'max_depth'
p2485
I5
sg11
(g13
S'4\xa2\x81\xb0\xc2\xe4\xda?'
tRp2486
g11
(g13
S'\x00\x00\x00\x00\x00\x00\x10@'
tRp2487
tp2488
a(S'breast_cancer'
(dp2489
S'n_forests'
p2490
I100
sS'n_jobs'
p2491
I-1
sS'weight_extent'
p2492
I2
sS'n_trees'
p2493
I1
sS'k'
I4
sS'n_features_to_predict'
p2494
F0.5
sS'kmeans_type'
p2495
S'squishy'
p2496
sS'max_depth'
p2497
I5
sg11
(g13
S'&(\xe0p\x17o\xe8?'
tRp2498
g11
(g13
S'\x00\x00\x00\x00\x00\x00\x08@'
tRp2499
tp2500
a(S'boston'
(dp2501
S'n_forests'
p2502
I100
sS'n_jobs'
p2503
I-1
sS'weight_extent'
p2504
I2
sS'n_trees'
p2505
I1
sS'k'
I5
sS'n_features_to_predict'
p2506
F0.5
sS'kmeans_type'
p2507
S'squishy'
p2508
sS'max_depth'
p2509
I5
sg11
(g13
S'\x9f\x04\xc2\xd3\xb3\x1c\xe3?'
tRp2510
g11
(g13
S'\x00\x00\x00\x00\x00\x00\x14@'
tRp2511
tp2512
a(S'diabetes'
(dp2513
S'n_forests'
p2514
I100
sS'n_jobs'
p2515
I-1
sS'weight_extent'
p2516
I2
sS'n_trees'
p2517
I1
sS'k'
I5
sS'n_features_to_predict'
p2518
F0.5
sS'kmeans_type'
p2519
S'squishy'
p2520
sS'max_depth'
p2521
I5
sg11
(g13
S'\x9a\x01\xca*\x128\xeb?'
tRp2522
g11
(g13
S'\x00\x00\x00\x00\x00\x00\x14@'
tRp2523
tp2524
a(S'iris'
(dp2525
S'n_forests'
p2526
I100
sS'n_jobs'
p2527
I-1
sS'weight_extent'
p2528
I2
sS'n_trees'
p2529
I1
sS'k'
I5
sS'n_features_to_predict'
p2530
F0.5
sS'kmeans_type'
p2531
S'squishy'
p2532
sS'max_depth'
p2533
I5
sg11
(g13
S'\xa2}FK\xa6\xaa\xdc?'
tRp2534
g11
(g13
S'\x00\x00\x00\x00\x00\x00\x14@'
tRp2535
tp2536
a(S'breast_cancer'
(dp2537
S'n_forests'
p2538
I100
sS'n_jobs'
p2539
I-1
sS'weight_extent'
p2540
I2
sS'n_trees'
p2541
I1
sS'k'
I5
sS'n_features_to_predict'
p2542
F0.5
sS'kmeans_type'
p2543
S'squishy'
p2544
sS'max_depth'
p2545
I5
sg11
(g13
S'6p]\xa6(<\xeb?'
tRp2546
g11
(g13
S'ffffff\x10@'
tRp2547
tp2548
a(S'boston'
(dp2549
S'n_forests'
p2550
I100
sS'n_jobs'
p2551
I-1
sS'weight_extent'
p2552
I2
sS'n_trees'
p2553
I1
sS'k'
I6
sS'n_features_to_predict'
p2554
F0.5
sS'kmeans_type'
p2555
S'squishy'
p2556
sS'max_depth'
p2557
I5
sg11
(g13
S'\xb5\x02^?R\xf5\xe1?'
tRp2558
g11
(g13
S'\x00\x00\x00\x00\x00\x00\x18@'
tRp2559
tp2560
a(S'diabetes'
(dp2561
S'n_forests'
p2562
I100
sS'n_jobs'
p2563
I-1
sS'weight_extent'
p2564
I2
sS'n_trees'
p2565
I1
sS'k'
I6
sS'n_features_to_predict'
p2566
F0.5
sS'kmeans_type'
p2567
S'squishy'
p2568
sS'max_depth'
p2569
I5
sg11
(g13
S'\x88;W\x02\x07\x0c\xe7?'
tRp2570
g11
(g13
S'\x9a\x99\x99\x99\x99\x99\x15@'
tRp2571
tp2572
a(S'iris'
(dp2573
S'n_forests'
p2574
I100
sS'n_jobs'
p2575
I-1
sS'weight_extent'
p2576
I2
sS'n_trees'
p2577
I1
sS'k'
I6
sS'n_features_to_predict'
p2578
F0.5
sS'kmeans_type'
p2579
S'squishy'
p2580
sS'max_depth'
p2581
I5
sg11
(g13
S'i\xb5,-\xa8\xbc\xda?'
tRp2582
g11
(g13
S'\x00\x00\x00\x00\x00\x00\x18@'
tRp2583
tp2584
a(S'breast_cancer'
(dp2585
S'n_forests'
p2586
I100
sS'n_jobs'
p2587
I-1
sS'weight_extent'
p2588
I2
sS'n_trees'
p2589
I1
sS'k'
I6
sS'n_features_to_predict'
p2590
F0.5
sS'kmeans_type'
p2591
S'squishy'
p2592
sS'max_depth'
p2593
I5
sg11
(g13
S'X\xbc\x95\xad\x1fz\xed?'
tRp2594
g11
(g13
S'ffffff\x06@'
tRp2595
tp2596
a(S'boston'
(dp2597
S'n_forests'
p2598
I100
sS'n_jobs'
p2599
I-1
sS'weight_extent'
p2600
I2
sS'n_trees'
p2601
I1
sS'k'
I8
sS'n_features_to_predict'
p2602
F0.5
sS'kmeans_type'
p2603
S'squishy'
p2604
sS'max_depth'
p2605
I5
sg11
(g13
S'@?\xab\xad\xd6\xa8\xdf?'
tRp2606
g11
(g13
S'ffffff\x1c@'
tRp2607
tp2608
a(S'diabetes'
(dp2609
S'n_forests'
p2610
I100
sS'n_jobs'
p2611
I-1
sS'weight_extent'
p2612
I2
sS'n_trees'
p2613
I1
sS'k'
I8
sS'n_features_to_predict'
p2614
F0.5
sS'kmeans_type'
p2615
S'squishy'
p2616
sS'max_depth'
p2617
I5
sg11
(g13
S'\x01\x7fj\x05\xea\x14\xe4?'
tRp2618
g11
(g13
S'333333\x1b@'
tRp2619
tp2620
a(S'iris'
(dp2621
S'n_forests'
p2622
I100
sS'n_jobs'
p2623
I-1
sS'weight_extent'
p2624
I2
sS'n_trees'
p2625
I1
sS'k'
I8
sS'n_features_to_predict'
p2626
F0.5
sS'kmeans_type'
p2627
S'squishy'
p2628
sS'max_depth'
p2629
I5
sg11
(g13
S'\xe7\x97i$\t\x0b\xdb?'
tRp2630
g11
(g13
S'\x00\x00\x00\x00\x00\x00\x1e@'
tRp2631
tp2632
a(S'breast_cancer'
(dp2633
S'n_forests'
p2634
I100
sS'n_jobs'
p2635
I-1
sS'weight_extent'
p2636
I2
sS'n_trees'
p2637
I1
sS'k'
I8
sS'n_features_to_predict'
p2638
F0.5
sS'kmeans_type'
p2639
S'squishy'
p2640
sS'max_depth'
p2641
I5
sg11
(g13
S'\x96\xee\xc6\xaf?\xb9\xea?'
tRp2642
g11
(g13
S'\x00\x00\x00\x00\x00\x00\x10@'
tRp2643
tp2644
a(S'boston'
(dp2645
S'n_forests'
p2646
I100
sS'n_jobs'
p2647
I-1
sS'weight_extent'
p2648
I2
sS'n_trees'
p2649
I1
sS'k'
I10
sS'n_features_to_predict'
p2650
F0.5
sS'kmeans_type'
p2651
S'squishy'
p2652
sS'max_depth'
p2653
I5
sg11
(g13
S'\xf3\xc5"C\xe1\\\xda?'
tRp2654
g11
(g13
S'ffffff @'
tRp2655
tp2656
a(S'diabetes'
(dp2657
S'n_forests'
p2658
I100
sS'n_jobs'
p2659
I-1
sS'weight_extent'
p2660
I2
sS'n_trees'
p2661
I1
sS'k'
I10
sS'n_features_to_predict'
p2662
F0.5
sS'kmeans_type'
p2663
S'squishy'
p2664
sS'max_depth'
p2665
I5
sg11
(g13
S'\xd2\x96\x8f\xa2\xd8\xd7\xe9?'
tRp2666
g11
(g13
S'\x00\x00\x00\x00\x00\x00 @'
tRp2667
tp2668
a(S'iris'
(dp2669
S'n_forests'
p2670
I100
sS'n_jobs'
p2671
I-1
sS'weight_extent'
p2672
I2
sS'n_trees'
p2673
I1
sS'k'
I10
sS'n_features_to_predict'
p2674
F0.5
sS'kmeans_type'
p2675
S'squishy'
p2676
sS'max_depth'
p2677
I5
sg11
(g13
S'\x00gk\x89\xeb\xcf\xd1?'
tRp2678
g11
(g13
S'\x00\x00\x00\x00\x00\x00$@'
tRp2679
tp2680
a(S'breast_cancer'
(dp2681
S'n_forests'
p2682
I100
sS'n_jobs'
p2683
I-1
sS'weight_extent'
p2684
I2
sS'n_trees'
p2685
I1
sS'k'
I10
sS'n_features_to_predict'
p2686
F0.5
sS'kmeans_type'
p2687
S'squishy'
p2688
sS'max_depth'
p2689
I5
sg11
(g13
S's\xf4\x85\x89\xbd\xdb\xe8?'
tRp2690
g11
(g13
S'333333\x13@'
tRp2691
tp2692
a(S'boston'
(dp2693
S'n_forests'
p2694
I100
sS'n_jobs'
p2695
I-1
sS'weight_extent'
p2696
I2
sS'n_trees'
p2697
I1
sS'k'
I2
sS'n_features_to_predict'
p2698
F0.5
sS'kmeans_type'
p2699
S'squishy'
p2700
sS'max_depth'
p2701
I6
sg11
(g13
S'5\x19\xae-\xb47\xe7?'
tRp2702
g11
(g13
S'\x00\x00\x00\x00\x00\x00\x00@'
tRp2703
tp2704
a(S'diabetes'
(dp2705
S'n_forests'
p2706
I100
sS'n_jobs'
p2707
I-1
sS'weight_extent'
p2708
I2
sS'n_trees'
p2709
I1
sS'k'
I2
sS'n_features_to_predict'
p2710
F0.5
sS'kmeans_type'
p2711
S'squishy'
p2712
sS'max_depth'
p2713
I6
sg11
(g13
S'\xa2`\xa4\xed\xc4\xb7\xed?'
tRp2714
g11
(g13
S'\x00\x00\x00\x00\x00\x00\x00@'
tRp2715
tp2716
a(S'iris'
(dp2717
S'n_forests'
p2718
I100
sS'n_jobs'
p2719
I-1
sS'weight_extent'
p2720
I2
sS'n_trees'
p2721
I1
sS'k'
I2
sS'n_features_to_predict'
p2722
F0.5
sS'kmeans_type'
p2723
S'squishy'
p2724
sS'max_depth'
p2725
I6
sg11
(g13
S'\x17\x87\xd5\xdf\xbdf\xe4?'
tRp2726
g11
(g13
S'\x00\x00\x00\x00\x00\x00\x00@'
tRp2727
tp2728
a(S'breast_cancer'
(dp2729
S'n_forests'
p2730
I100
sS'n_jobs'
p2731
I-1
sS'weight_extent'
p2732
I2
sS'n_trees'
p2733
I1
sS'k'
I2
sS'n_features_to_predict'
p2734
F0.5
sS'kmeans_type'
p2735
S'squishy'
p2736
sS'max_depth'
p2737
I6
sg11
(g13
S'\xf5\x93I\xc7q,\xef?'
tRp2738
g11
(g13
S'ffffff\xfe?'
tRp2739
tp2740
a(S'boston'
(dp2741
S'n_forests'
p2742
I100
sS'n_jobs'
p2743
I-1
sS'weight_extent'
p2744
I2
sS'n_trees'
p2745
I1
sS'k'
I3
sS'n_features_to_predict'
p2746
F0.5
sS'kmeans_type'
p2747
S'squishy'
p2748
sS'max_depth'
p2749
I6
sg11
(g13
S'\xe3c\x01\xa9\xbc\xd3\xe3?'
tRp2750
g11
(g13
S'\x00\x00\x00\x00\x00\x00\x08@'
tRp2751
tp2752
a(S'diabetes'
(dp2753
S'n_forests'
p2754
I100
sS'n_jobs'
p2755
I-1
sS'weight_extent'
p2756
I2
sS'n_trees'
p2757
I1
sS'k'
I3
sS'n_features_to_predict'
p2758
F0.5
sS'kmeans_type'
p2759
S'squishy'
p2760
sS'max_depth'
p2761
I6
sg11
(g13
S'w\x05+:\xec9\xe8?'
tRp2762
g11
(g13
S'333333\x07@'
tRp2763
tp2764
a(S'iris'
(dp2765
S'n_forests'
p2766
I100
sS'n_jobs'
p2767
I-1
sS'weight_extent'
p2768
I2
sS'n_trees'
p2769
I1
sS'k'
I3
sS'n_features_to_predict'
p2770
F0.5
sS'kmeans_type'
p2771
S'squishy'
p2772
sS'max_depth'
p2773
I6
sg11
(g13
S'\x96\x95\xd11\xa9T\xe2?'
tRp2774
g11
(g13
S'\x00\x00\x00\x00\x00\x00\x08@'
tRp2775
tp2776
a(S'breast_cancer'
(dp2777
S'n_forests'
p2778
I100
sS'n_jobs'
p2779
I-1
sS'weight_extent'
p2780
I2
sS'n_trees'
p2781
I1
sS'k'
I3
sS'n_features_to_predict'
p2782
F0.5
sS'kmeans_type'
p2783
S'squishy'
p2784
sS'max_depth'
p2785
I6
sg11
(g13
S']H\xb1]\xc6/\xec?'
tRp2786
g11
(g13
S'\x00\x00\x00\x00\x00\x00\x08@'
tRp2787
tp2788
a(S'boston'
(dp2789
S'n_forests'
p2790
I100
sS'n_jobs'
p2791
I-1
sS'weight_extent'
p2792
I2
sS'n_trees'
p2793
I1
sS'k'
I4
sS'n_features_to_predict'
p2794
F0.5
sS'kmeans_type'
p2795
S'squishy'
p2796
sS'max_depth'
p2797
I6
sg11
(g13
S'.\xd1\xd1\x8aJr\xe3?'
tRp2798
g11
(g13
S'333333\x0f@'
tRp2799
tp2800
a(S'diabetes'
(dp2801
S'n_forests'
p2802
I100
sS'n_jobs'
p2803
I-1
sS'weight_extent'
p2804
I2
sS'n_trees'
p2805
I1
sS'k'
I4
sS'n_features_to_predict'
p2806
F0.5
sS'kmeans_type'
p2807
S'squishy'
p2808
sS'max_depth'
p2809
I6
sg11
(g13
S'0\xe8>\xf4\xb1-\xed?'
tRp2810
g11
(g13
S'\x00\x00\x00\x00\x00\x00\x10@'
tRp2811
tp2812
a(S'iris'
(dp2813
S'n_forests'
p2814
I100
sS'n_jobs'
p2815
I-1
sS'weight_extent'
p2816
I2
sS'n_trees'
p2817
I1
sS'k'
I4
sS'n_features_to_predict'
p2818
F0.5
sS'kmeans_type'
p2819
S'squishy'
p2820
sS'max_depth'
p2821
I6
sg11
(g13
S'|\xa5\x85\xd5[5\xe1?'
tRp2822
g11
(g13
S'\x00\x00\x00\x00\x00\x00\x10@'
tRp2823
tp2824
a(S'breast_cancer'
(dp2825
S'n_forests'
p2826
I100
sS'n_jobs'
p2827
I-1
sS'weight_extent'
p2828
I2
sS'n_trees'
p2829
I1
sS'k'
I4
sS'n_features_to_predict'
p2830
F0.5
sS'kmeans_type'
p2831
S'squishy'
p2832
sS'max_depth'
p2833
I6
sg11
(g13
S'r]\x90\x9a\x17B\xeb?'
tRp2834
g11
(g13
S'333333\x0f@'
tRp2835
tp2836
a(S'boston'
(dp2837
S'n_forests'
p2838
I100
sS'n_jobs'
p2839
I-1
sS'weight_extent'
p2840
I2
sS'n_trees'
p2841
I1
sS'k'
I5
sS'n_features_to_predict'
p2842
F0.5
sS'kmeans_type'
p2843
S'squishy'
p2844
sS'max_depth'
p2845
I6
sg11
(g13
S'\xd2\xbc\xc0\x95\xf3\x06\xe5?'
tRp2846
g11
(g13
S'\x9a\x99\x99\x99\x99\x99\x13@'
tRp2847
tp2848
a(S'diabetes'
(dp2849
S'n_forests'
p2850
I100
sS'n_jobs'
p2851
I-1
sS'weight_extent'
p2852
I2
sS'n_trees'
p2853
I1
sS'k'
I5
sS'n_features_to_predict'
p2854
F0.5
sS'kmeans_type'
p2855
S'squishy'
p2856
sS'max_depth'
p2857
I6
sg11
(g13
S'\x8d\xec\xe9\x98B\xe1\xe9?'
tRp2858
g11
(g13
S'ffffff\n@'
tRp2859
tp2860
a(S'iris'
(dp2861
S'n_forests'
p2862
I100
sS'n_jobs'
p2863
I-1
sS'weight_extent'
p2864
I2
sS'n_trees'
p2865
I1
sS'k'
I5
sS'n_features_to_predict'
p2866
F0.5
sS'kmeans_type'
p2867
S'squishy'
p2868
sS'max_depth'
p2869
I6
sg11
(g13
S'\xadx\xb0\xa4\x08x\xe4?'
tRp2870
g11
(g13
S'\x00\x00\x00\x00\x00\x00\x14@'
tRp2871
tp2872
a(S'breast_cancer'
(dp2873
S'n_forests'
p2874
I100
sS'n_jobs'
p2875
I-1
sS'weight_extent'
p2876
I2
sS'n_trees'
p2877
I1
sS'k'
I5
sS'n_features_to_predict'
p2878
F0.5
sS'kmeans_type'
p2879
S'squishy'
p2880
sS'max_depth'
p2881
I6
sg11
(g13
S'@&\xd2V\r\x1f\xee?'
tRp2882
g11
(g13
S'333333\x0b@'
tRp2883
tp2884
a(S'boston'
(dp2885
S'n_forests'
p2886
I100
sS'n_jobs'
p2887
I-1
sS'weight_extent'
p2888
I2
sS'n_trees'
p2889
I1
sS'k'
I6
sS'n_features_to_predict'
p2890
F0.5
sS'kmeans_type'
p2891
S'squishy'
p2892
sS'max_depth'
p2893
I6
sg11
(g13
S'p\xf7\xc7[-3\xe3?'
tRp2894
g11
(g13
S'ffffff\x16@'
tRp2895
tp2896
a(S'diabetes'
(dp2897
S'n_forests'
p2898
I100
sS'n_jobs'
p2899
I-1
sS'weight_extent'
p2900
I2
sS'n_trees'
p2901
I1
sS'k'
I6
sS'n_features_to_predict'
p2902
F0.5
sS'kmeans_type'
p2903
S'squishy'
p2904
sS'max_depth'
p2905
I6
sg11
(g13
S'(\t\xd5\x84G\x97\xe8?'
tRp2906
g11
(g13
S'\x00\x00\x00\x00\x00\x00\x14@'
tRp2907
tp2908
a(S'iris'
(dp2909
S'n_forests'
p2910
I100
sS'n_jobs'
p2911
I-1
sS'weight_extent'
p2912
I2
sS'n_trees'
p2913
I1
sS'k'
I6
sS'n_features_to_predict'
p2914
F0.5
sS'kmeans_type'
p2915
S'squishy'
p2916
sS'max_depth'
p2917
I6
sg11
(g13
S'\xafs\xaa4\xe9y\xdf?'
tRp2918
g11
(g13
S'\x00\x00\x00\x00\x00\x00\x18@'
tRp2919
tp2920
a(S'breast_cancer'
(dp2921
S'n_forests'
p2922
I100
sS'n_jobs'
p2923
I-1
sS'weight_extent'
p2924
I2
sS'n_trees'
p2925
I1
sS'k'
I6
sS'n_features_to_predict'
p2926
F0.5
sS'kmeans_type'
p2927
S'squishy'
p2928
sS'max_depth'
p2929
I6
sg11
(g13
S'\xf5Rie\xf5\x8b\xed?'
tRp2930
g11
(g13
S'\x00\x00\x00\x00\x00\x00\x04@'
tRp2931
tp2932
a(S'boston'
(dp2933
S'n_forests'
p2934
I100
sS'n_jobs'
p2935
I-1
sS'weight_extent'
p2936
I2
sS'n_trees'
p2937
I1
sS'k'
I8
sS'n_features_to_predict'
p2938
F0.5
sS'kmeans_type'
p2939
S'squishy'
p2940
sS'max_depth'
p2941
I6
sg11
(g13
S'\nY\x83\xaeyt\xdb?'
tRp2942
g11
(g13
S'\x9a\x99\x99\x99\x99\x99\x1b@'
tRp2943
tp2944
a(S'diabetes'
(dp2945
S'n_forests'
p2946
I100
sS'n_jobs'
p2947
I-1
sS'weight_extent'
p2948
I2
sS'n_trees'
p2949
I1
sS'k'
I8
sS'n_features_to_predict'
p2950
F0.5
sS'kmeans_type'
p2951
S'squishy'
p2952
sS'max_depth'
p2953
I6
sg11
(g13
S'K|,\x00\x84\xdb\xe9?'
tRp2954
g11
(g13
S'\xcd\xcc\xcc\xcc\xcc\xcc\x14@'
tRp2955
tp2956
a(S'iris'
(dp2957
S'n_forests'
p2958
I100
sS'n_jobs'
p2959
I-1
sS'weight_extent'
p2960
I2
sS'n_trees'
p2961
I1
sS'k'
I8
sS'n_features_to_predict'
p2962
F0.5
sS'kmeans_type'
p2963
S'squishy'
p2964
sS'max_depth'
p2965
I6
sg11
(g13
S'\xcbb\x88=\x0f\xbf\xd8?'
tRp2966
g11
(g13
S'\x00\x00\x00\x00\x00\x00\x1f@'
tRp2967
tp2968
a(S'breast_cancer'
(dp2969
S'n_forests'
p2970
I100
sS'n_jobs'
p2971
I-1
sS'weight_extent'
p2972
I2
sS'n_trees'
p2973
I1
sS'k'
I8
sS'n_features_to_predict'
p2974
F0.5
sS'kmeans_type'
p2975
S'squishy'
p2976
sS'max_depth'
p2977
I6
sg11
(g13
S'\xea\xc2~\t8\xa7\xe6?'
tRp2978
g11
(g13
S'\xcd\xcc\xcc\xcc\xcc\xcc\x10@'
tRp2979
tp2980
a(S'boston'
(dp2981
S'n_forests'
p2982
I100
sS'n_jobs'
p2983
I-1
sS'weight_extent'
p2984
I2
sS'n_trees'
p2985
I1
sS'k'
I10
sS'n_features_to_predict'
p2986
F0.5
sS'kmeans_type'
p2987
S'squishy'
p2988
sS'max_depth'
p2989
I6
sg11
(g13
S'\xea\x8a\xa9\xa8)\xcb\xe1?'
tRp2990
g11
(g13
S'\xcd\xcc\xcc\xcc\xcc\xcc"@'
tRp2991
tp2992
a(S'diabetes'
(dp2993
S'n_forests'
p2994
I100
sS'n_jobs'
p2995
I-1
sS'weight_extent'
p2996
I2
sS'n_trees'
p2997
I1
sS'k'
I10
sS'n_features_to_predict'
p2998
F0.5
sS'kmeans_type'
p2999
S'squishy'
p3000
sS'max_depth'
p3001
I6
sg11
(g13
S'\x046\xda\xbe\x1a#\xe7?'
tRp3002
g11
(g13
S'\xcd\xcc\xcc\xcc\xcc\xcc!@'
tRp3003
tp3004
a(S'iris'
(dp3005
S'n_forests'
p3006
I100
sS'n_jobs'
p3007
I-1
sS'weight_extent'
p3008
I2
sS'n_trees'
p3009
I1
sS'k'
I10
sS'n_features_to_predict'
p3010
F0.5
sS'kmeans_type'
p3011
S'squishy'
p3012
sS'max_depth'
p3013
I6
sg11
(g13
S'2\x84[\xcax0\xdf?'
tRp3014
g11
(g13
S'\x00\x00\x00\x00\x00\x00"@'
tRp3015
tp3016
a(S'breast_cancer'
(dp3017
S'n_forests'
p3018
I100
sS'n_jobs'
p3019
I-1
sS'weight_extent'
p3020
I2
sS'n_trees'
p3021
I1
sS'k'
I10
sS'n_features_to_predict'
p3022
F0.5
sS'kmeans_type'
p3023
S'squishy'
p3024
sS'max_depth'
p3025
I6
sg11
(g13
S'M,*};\xd7\xeb?'
tRp3026
g11
(g13
S'\x00\x00\x00\x00\x00\x00\x18@'
tRp3027
tp3028
a.