(lp1
(S'boston'
(dp2
S'n_forests'
p3
I100
sS'n_jobs'
p4
I-1
sS'weight_extent'
p5
I0
sS'n_trees'
p6
I1
sS'k'
I2
sS'n_features_to_predict'
p7
F0.29999999999999999
sS'kmeans_type'
p8
S'squishy'
p9
sS'max_depth'
p10
I3
scnumpy.core.multiarray
scalar
p11
(cnumpy
dtype
p12
(S'f8'
I0
I1
tRp13
(I3
S'<'
NNNI-1
I-1
I0
tbS'=\xe9 \x029\xa3\xe4?'
tRp14
g11
(g13
S'\x00\x00\x00\x00\x00\x00\x00@'
tRp15
tp16
a(S'boston'
(dp17
S'n_forests'
p18
I100
sS'n_jobs'
p19
I-1
sS'weight_extent'
p20
I0
sS'n_trees'
p21
I1
sS'k'
I2
sS'n_features_to_predict'
p22
F0.29999999999999999
sS'kmeans_type'
p23
S'normal'
p24
sS'max_depth'
p25
I3
sg11
(g13
S'F\xb5\x05\xb5L8\xe5?'
tRp26
g11
(g13
S'\x00\x00\x00\x00\x00\x00\x00@'
tRp27
tp28
a(S'diabetes'
(dp29
S'n_forests'
p30
I100
sS'n_jobs'
p31
I-1
sS'weight_extent'
p32
I0
sS'n_trees'
p33
I1
sS'k'
I2
sS'n_features_to_predict'
p34
F0.29999999999999999
sS'kmeans_type'
p35
S'squishy'
p36
sS'max_depth'
p37
I3
sg11
(g13
S'\xcdew\x9ecy\xe8?'
tRp38
g11
(g13
S'\x00\x00\x00\x00\x00\x00\x00@'
tRp39
tp40
a(S'diabetes'
(dp41
S'n_forests'
p42
I100
sS'n_jobs'
p43
I-1
sS'weight_extent'
p44
I0
sS'n_trees'
p45
I1
sS'k'
I2
sS'n_features_to_predict'
p46
F0.29999999999999999
sS'kmeans_type'
p47
S'normal'
p48
sS'max_depth'
p49
I3
sg11
(g13
S'\x03"\xd3\xaf\xd5!\xe8?'
tRp50
g11
(g13
S'\x00\x00\x00\x00\x00\x00\x00@'
tRp51
tp52
a(S'iris'
(dp53
S'n_forests'
p54
I100
sS'n_jobs'
p55
I-1
sS'weight_extent'
p56
I0
sS'n_trees'
p57
I1
sS'k'
I2
sS'n_features_to_predict'
p58
F0.29999999999999999
sS'kmeans_type'
p59
S'squishy'
p60
sS'max_depth'
p61
I3
sg11
(g13
S'\xfc!\xee\xf8\xcf\xbd\xe4?'
tRp62
g11
(g13
S'\x00\x00\x00\x00\x00\x00\x00@'
tRp63
tp64
a(S'iris'
(dp65
S'n_forests'
p66
I100
sS'n_jobs'
p67
I-1
sS'weight_extent'
p68
I0
sS'n_trees'
p69
I1
sS'k'
I2
sS'n_features_to_predict'
p70
F0.29999999999999999
sS'kmeans_type'
p71
S'normal'
p72
sS'max_depth'
p73
I3
sg11
(g13
S'S\xe0\x00=\xd7\xbb\xe3?'
tRp74
g11
(g13
S'\x00\x00\x00\x00\x00\x00\x00@'
tRp75
tp76
a(S'breast_cancer'
(dp77
S'n_forests'
p78
I100
sS'n_jobs'
p79
I-1
sS'weight_extent'
p80
I0
sS'n_trees'
p81
I1
sS'k'
I2
sS'n_features_to_predict'
p82
F0.29999999999999999
sS'kmeans_type'
p83
S'squishy'
p84
sS'max_depth'
p85
I3
sg11
(g13
S's+\xfe\x1e^#\xe5?'
tRp86
g11
(g13
S'\x00\x00\x00\x00\x00\x00\x00@'
tRp87
tp88
a(S'breast_cancer'
(dp89
S'n_forests'
p90
I100
sS'n_jobs'
p91
I-1
sS'weight_extent'
p92
I0
sS'n_trees'
p93
I1
sS'k'
I2
sS'n_features_to_predict'
p94
F0.29999999999999999
sS'kmeans_type'
p95
S'normal'
p96
sS'max_depth'
p97
I3
sg11
(g13
S'\xf3\xf5{\xcd*\x9a\xe4?'
tRp98
g11
(g13
S'\x00\x00\x00\x00\x00\x00\x00@'
tRp99
tp100
a(S'boston'
(dp101
S'n_forests'
p102
I100
sS'n_jobs'
p103
I-1
sS'weight_extent'
p104
I0
sS'n_trees'
p105
I1
sS'k'
I2
sS'n_features_to_predict'
p106
F0.5
sS'kmeans_type'
p107
S'squishy'
p108
sS'max_depth'
p109
I3
sg11
(g13
S'\xdf\xc9M\xa2-4\xe5?'
tRp110
g11
(g13
S'\x00\x00\x00\x00\x00\x00\x00@'
tRp111
tp112
a(S'boston'
(dp113
S'n_forests'
p114
I100
sS'n_jobs'
p115
I-1
sS'weight_extent'
p116
I0
sS'n_trees'
p117
I1
sS'k'
I2
sS'n_features_to_predict'
p118
F0.5
sS'kmeans_type'
p119
S'normal'
p120
sS'max_depth'
p121
I3
sg11
(g13
S'\x8c\xe6\xb8\x9b\xac\xf2\xe5?'
tRp122
g11
(g13
S'\x00\x00\x00\x00\x00\x00\x00@'
tRp123
tp124
a(S'diabetes'
(dp125
S'n_forests'
p126
I100
sS'n_jobs'
p127
I-1
sS'weight_extent'
p128
I0
sS'n_trees'
p129
I1
sS'k'
I2
sS'n_features_to_predict'
p130
F0.5
sS'kmeans_type'
p131
S'squishy'
p132
sS'max_depth'
p133
I3
sg11
(g13
S'3!\xb1}k\xdd\xe7?'
tRp134
g11
(g13
S'\x00\x00\x00\x00\x00\x00\x00@'
tRp135
tp136
a(S'diabetes'
(dp137
S'n_forests'
p138
I100
sS'n_jobs'
p139
I-1
sS'weight_extent'
p140
I0
sS'n_trees'
p141
I1
sS'k'
I2
sS'n_features_to_predict'
p142
F0.5
sS'kmeans_type'
p143
S'normal'
p144
sS'max_depth'
p145
I3
sg11
(g13
S'\xf5i\x12pA\x19\xe8?'
tRp146
g11
(g13
S'\x00\x00\x00\x00\x00\x00\x00@'
tRp147
tp148
a(S'iris'
(dp149
S'n_forests'
p150
I100
sS'n_jobs'
p151
I-1
sS'weight_extent'
p152
I0
sS'n_trees'
p153
I1
sS'k'
I2
sS'n_features_to_predict'
p154
F0.5
sS'kmeans_type'
p155
S'squishy'
p156
sS'max_depth'
p157
I3
sg11
(g13
S'L}\xca\x84\x82\x0e\xe4?'
tRp158
g11
(g13
S'\x00\x00\x00\x00\x00\x00\x00@'
tRp159
tp160
a(S'iris'
(dp161
S'n_forests'
p162
I100
sS'n_jobs'
p163
I-1
sS'weight_extent'
p164
I0
sS'n_trees'
p165
I1
sS'k'
I2
sS'n_features_to_predict'
p166
F0.5
sS'kmeans_type'
p167
S'normal'
p168
sS'max_depth'
p169
I3
sg11
(g13
S'\xc5\x9d9?\xf1\xde\xe2?'
tRp170
g11
(g13
S'\x00\x00\x00\x00\x00\x00\x00@'
tRp171
tp172
a(S'breast_cancer'
(dp173
S'n_forests'
p174
I100
sS'n_jobs'
p175
I-1
sS'weight_extent'
p176
I0
sS'n_trees'
p177
I1
sS'k'
I2
sS'n_features_to_predict'
p178
F0.5
sS'kmeans_type'
p179
S'squishy'
p180
sS'max_depth'
p181
I3
sg11
(g13
S'\x82\x00\xb2\xecZ\xdc\xe4?'
tRp182
g11
(g13
S'\x00\x00\x00\x00\x00\x00\x00@'
tRp183
tp184
a(S'breast_cancer'
(dp185
S'n_forests'
p186
I100
sS'n_jobs'
p187
I-1
sS'weight_extent'
p188
I0
sS'n_trees'
p189
I1
sS'k'
I2
sS'n_features_to_predict'
p190
F0.5
sS'kmeans_type'
p191
S'normal'
p192
sS'max_depth'
p193
I3
sg11
(g13
S'\xe5\xbb}\xe1\x18\xde\xe4?'
tRp194
g11
(g13
S'\x00\x00\x00\x00\x00\x00\x00@'
tRp195
tp196
a(S'boston'
(dp197
S'n_forests'
p198
I100
sS'n_jobs'
p199
I-1
sS'weight_extent'
p200
I0
sS'n_trees'
p201
I1
sS'k'
I3
sS'n_features_to_predict'
p202
F0.29999999999999999
sS'kmeans_type'
p203
S'squishy'
p204
sS'max_depth'
p205
I3
sg11
(g13
S'\x08\x7f%\xc5\xa7\xd2\xe2?'
tRp206
g11
(g13
S'\x00\x00\x00\x00\x00\x00\x08@'
tRp207
tp208
a(S'boston'
(dp209
S'n_forests'
p210
I100
sS'n_jobs'
p211
I-1
sS'weight_extent'
p212
I0
sS'n_trees'
p213
I1
sS'k'
I3
sS'n_features_to_predict'
p214
F0.29999999999999999
sS'kmeans_type'
p215
S'normal'
p216
sS'max_depth'
p217
I3
sg11
(g13
S'v\xb2m/}D\xe2?'
tRp218
g11
(g13
S'\x00\x00\x00\x00\x00\x00\x08@'
tRp219
tp220
a(S'diabetes'
(dp221
S'n_forests'
p222
I100
sS'n_jobs'
p223
I-1
sS'weight_extent'
p224
I0
sS'n_trees'
p225
I1
sS'k'
I3
sS'n_features_to_predict'
p226
F0.29999999999999999
sS'kmeans_type'
p227
S'squishy'
p228
sS'max_depth'
p229
I3
sg11
(g13
S'\xc0\r\xcd*\xe1y\xe6?'
tRp230
g11
(g13
S'\x00\x00\x00\x00\x00\x00\x08@'
tRp231
tp232
a(S'diabetes'
(dp233
S'n_forests'
p234
I100
sS'n_jobs'
p235
I-1
sS'weight_extent'
p236
I0
sS'n_trees'
p237
I1
sS'k'
I3
sS'n_features_to_predict'
p238
F0.29999999999999999
sS'kmeans_type'
p239
S'normal'
p240
sS'max_depth'
p241
I3
sg11
(g13
S'\xe6*\xc0u\x12|\xe6?'
tRp242
g11
(g13
S'\x00\x00\x00\x00\x00\x00\x08@'
tRp243
tp244
a(S'iris'
(dp245
S'n_forests'
p246
I100
sS'n_jobs'
p247
I-1
sS'weight_extent'
p248
I0
sS'n_trees'
p249
I1
sS'k'
I3
sS'n_features_to_predict'
p250
F0.29999999999999999
sS'kmeans_type'
p251
S'squishy'
p252
sS'max_depth'
p253
I3
sg11
(g13
S'c\x8e\x0c\x8e1\x19\xd1?'
tRp254
g11
(g13
S'\x00\x00\x00\x00\x00\x00\x08@'
tRp255
tp256
a(S'iris'
(dp257
S'n_forests'
p258
I100
sS'n_jobs'
p259
I-1
sS'weight_extent'
p260
I0
sS'n_trees'
p261
I1
sS'k'
I3
sS'n_features_to_predict'
p262
F0.29999999999999999
sS'kmeans_type'
p263
S'normal'
p264
sS'max_depth'
p265
I3
sg11
(g13
S'\x07\x08 \x14\x8e\x1b\xd1?'
tRp266
g11
(g13
S'\x00\x00\x00\x00\x00\x00\x08@'
tRp267
tp268
a(S'breast_cancer'
(dp269
S'n_forests'
p270
I100
sS'n_jobs'
p271
I-1
sS'weight_extent'
p272
I0
sS'n_trees'
p273
I1
sS'k'
I3
sS'n_features_to_predict'
p274
F0.29999999999999999
sS'kmeans_type'
p275
S'squishy'
p276
sS'max_depth'
p277
I3
sg11
(g13
S'q\xddY\xf5&\x9b\xe3?'
tRp278
g11
(g13
S'\x00\x00\x00\x00\x00\x00\x08@'
tRp279
tp280
a(S'breast_cancer'
(dp281
S'n_forests'
p282
I100
sS'n_jobs'
p283
I-1
sS'weight_extent'
p284
I0
sS'n_trees'
p285
I1
sS'k'
I3
sS'n_features_to_predict'
p286
F0.29999999999999999
sS'kmeans_type'
p287
S'normal'
p288
sS'max_depth'
p289
I3
sg11
(g13
S'\x12\x98\xc6]k\xea\xe3?'
tRp290
g11
(g13
S'\x00\x00\x00\x00\x00\x00\x08@'
tRp291
tp292
a(S'boston'
(dp293
S'n_forests'
p294
I100
sS'n_jobs'
p295
I-1
sS'weight_extent'
p296
I0
sS'n_trees'
p297
I1
sS'k'
I3
sS'n_features_to_predict'
p298
F0.5
sS'kmeans_type'
p299
S'squishy'
p300
sS'max_depth'
p301
I3
sg11
(g13
S'#<\xfe\xd56M\xe3?'
tRp302
g11
(g13
S'\x00\x00\x00\x00\x00\x00\x08@'
tRp303
tp304
a(S'boston'
(dp305
S'n_forests'
p306
I100
sS'n_jobs'
p307
I-1
sS'weight_extent'
p308
I0
sS'n_trees'
p309
I1
sS'k'
I3
sS'n_features_to_predict'
p310
F0.5
sS'kmeans_type'
p311
S'normal'
p312
sS'max_depth'
p313
I3
sg11
(g13
S'\x0c\xd7MwZ\xed\xe2?'
tRp314
g11
(g13
S'\x00\x00\x00\x00\x00\x00\x08@'
tRp315
tp316
a(S'diabetes'
(dp317
S'n_forests'
p318
I100
sS'n_jobs'
p319
I-1
sS'weight_extent'
p320
I0
sS'n_trees'
p321
I1
sS'k'
I3
sS'n_features_to_predict'
p322
F0.5
sS'kmeans_type'
p323
S'squishy'
p324
sS'max_depth'
p325
I3
sg11
(g13
S'\xc7r1u\xddq\xe6?'
tRp326
g11
(g13
S'\x00\x00\x00\x00\x00\x00\x08@'
tRp327
tp328
a(S'diabetes'
(dp329
S'n_forests'
p330
I100
sS'n_jobs'
p331
I-1
sS'weight_extent'
p332
I0
sS'n_trees'
p333
I1
sS'k'
I3
sS'n_features_to_predict'
p334
F0.5
sS'kmeans_type'
p335
S'normal'
p336
sS'max_depth'
p337
I3
sg11
(g13
S'>q,2\xf1F\xe6?'
tRp338
g11
(g13
S'\x00\x00\x00\x00\x00\x00\x08@'
tRp339
tp340
a(S'iris'
(dp341
S'n_forests'
p342
I100
sS'n_jobs'
p343
I-1
sS'weight_extent'
p344
I0
sS'n_trees'
p345
I1
sS'k'
I3
sS'n_features_to_predict'
p346
F0.5
sS'kmeans_type'
p347
S'squishy'
p348
sS'max_depth'
p349
I3
sg11
(g13
S'\xf2\xfaNd\x1dL\xd1?'
tRp350
g11
(g13
S'\x00\x00\x00\x00\x00\x00\x08@'
tRp351
tp352
a(S'iris'
(dp353
S'n_forests'
p354
I100
sS'n_jobs'
p355
I-1
sS'weight_extent'
p356
I0
sS'n_trees'
p357
I1
sS'k'
I3
sS'n_features_to_predict'
p358
F0.5
sS'kmeans_type'
p359
S'normal'
p360
sS'max_depth'
p361
I3
sg11
(g13
S'\x04\xda\xb6\x89\xe9(\xd1?'
tRp362
g11
(g13
S'\x00\x00\x00\x00\x00\x00\x08@'
tRp363
tp364
a(S'breast_cancer'
(dp365
S'n_forests'
p366
I100
sS'n_jobs'
p367
I-1
sS'weight_extent'
p368
I0
sS'n_trees'
p369
I1
sS'k'
I3
sS'n_features_to_predict'
p370
F0.5
sS'kmeans_type'
p371
S'squishy'
p372
sS'max_depth'
p373
I3
sg11
(g13
S'\x1a$o\x88C\xeb\xe3?'
tRp374
g11
(g13
S'\x00\x00\x00\x00\x00\x00\x08@'
tRp375
tp376
a(S'breast_cancer'
(dp377
S'n_forests'
p378
I100
sS'n_jobs'
p379
I-1
sS'weight_extent'
p380
I0
sS'n_trees'
p381
I1
sS'k'
I3
sS'n_features_to_predict'
p382
F0.5
sS'kmeans_type'
p383
S'normal'
p384
sS'max_depth'
p385
I3
sg11
(g13
S'\x7f\xd7\xb6\xbd\x1a\xce\xe3?'
tRp386
g11
(g13
S'\x00\x00\x00\x00\x00\x00\x08@'
tRp387
tp388
a(S'boston'
(dp389
S'n_forests'
p390
I100
sS'n_jobs'
p391
I-1
sS'weight_extent'
p392
I0
sS'n_trees'
p393
I1
sS'k'
I4
sS'n_features_to_predict'
p394
F0.29999999999999999
sS'kmeans_type'
p395
S'squishy'
p396
sS'max_depth'
p397
I3
sg11
(g13
S'\xb9\x8b\x85\x1c\x9b$\xe1?'
tRp398
g11
(g13
S'\x00\x00\x00\x00\x00\x00\x10@'
tRp399
tp400
a(S'boston'
(dp401
S'n_forests'
p402
I100
sS'n_jobs'
p403
I-1
sS'weight_extent'
p404
I0
sS'n_trees'
p405
I1
sS'k'
I4
sS'n_features_to_predict'
p406
F0.29999999999999999
sS'kmeans_type'
p407
S'normal'
p408
sS'max_depth'
p409
I3
sg11
(g13
S'\xa3\x87q\x8c\x1b\xd2\xe0?'
tRp410
g11
(g13
S'\x00\x00\x00\x00\x00\x00\x10@'
tRp411
tp412
a(S'diabetes'
(dp413
S'n_forests'
p414
I100
sS'n_jobs'
p415
I-1
sS'weight_extent'
p416
I0
sS'n_trees'
p417
I1
sS'k'
I4
sS'n_features_to_predict'
p418
F0.29999999999999999
sS'kmeans_type'
p419
S'squishy'
p420
sS'max_depth'
p421
I3
sg11
(g13
S'\xbe\xf0\xcb\x8c@m\xe5?'
tRp422
g11
(g13
S'\x00\x00\x00\x00\x00\x00\x10@'
tRp423
tp424
a(S'diabetes'
(dp425
S'n_forests'
p426
I100
sS'n_jobs'
p427
I-1
sS'weight_extent'
p428
I0
sS'n_trees'
p429
I1
sS'k'
I4
sS'n_features_to_predict'
p430
F0.29999999999999999
sS'kmeans_type'
p431
S'normal'
p432
sS'max_depth'
p433
I3
sg11
(g13
S'\x1e\x81\xc9\xc0\xfca\xe5?'
tRp434
g11
(g13
S'\x00\x00\x00\x00\x00\x00\x10@'
tRp435
tp436
a(S'iris'
(dp437
S'n_forests'
p438
I100
sS'n_jobs'
p439
I-1
sS'weight_extent'
p440
I0
sS'n_trees'
p441
I1
sS'k'
I4
sS'n_features_to_predict'
p442
F0.29999999999999999
sS'kmeans_type'
p443
S'squishy'
p444
sS'max_depth'
p445
I3
sg11
(g13
S'(H!;\xb3\xf1\xcd?'
tRp446
g11
(g13
S'\x00\x00\x00\x00\x00\x00\x10@'
tRp447
tp448
a(S'iris'
(dp449
S'n_forests'
p450
I100
sS'n_jobs'
p451
I-1
sS'weight_extent'
p452
I0
sS'n_trees'
p453
I1
sS'k'
I4
sS'n_features_to_predict'
p454
F0.29999999999999999
sS'kmeans_type'
p455
S'normal'
p456
sS'max_depth'
p457
I3
sg11
(g13
S'\x81\xc2\xad-\xc6>\xce?'
tRp458
g11
(g13
S'\x00\x00\x00\x00\x00\x00\x10@'
tRp459
tp460
a(S'breast_cancer'
(dp461
S'n_forests'
p462
I100
sS'n_jobs'
p463
I-1
sS'weight_extent'
p464
I0
sS'n_trees'
p465
I1
sS'k'
I4
sS'n_features_to_predict'
p466
F0.29999999999999999
sS'kmeans_type'
p467
S'squishy'
p468
sS'max_depth'
p469
I3
sg11
(g13
S'q#\xd2\x0c\xd5\\\xe1?'
tRp470
g11
(g13
S'\x00\x00\x00\x00\x00\x00\x10@'
tRp471
tp472
a(S'breast_cancer'
(dp473
S'n_forests'
p474
I100
sS'n_jobs'
p475
I-1
sS'weight_extent'
p476
I0
sS'n_trees'
p477
I1
sS'k'
I4
sS'n_features_to_predict'
p478
F0.29999999999999999
sS'kmeans_type'
p479
S'normal'
p480
sS'max_depth'
p481
I3
sg11
(g13
S'\xb9\xbe\xa7t\xbeq\xe1?'
tRp482
g11
(g13
S'\x00\x00\x00\x00\x00\x00\x10@'
tRp483
tp484
a(S'boston'
(dp485
S'n_forests'
p486
I100
sS'n_jobs'
p487
I-1
sS'weight_extent'
p488
I0
sS'n_trees'
p489
I1
sS'k'
I4
sS'n_features_to_predict'
p490
F0.5
sS'kmeans_type'
p491
S'squishy'
p492
sS'max_depth'
p493
I3
sg11
(g13
S'\x01\xbb\xbe\x11\x04\xec\xe1?'
tRp494
g11
(g13
S'\x00\x00\x00\x00\x00\x00\x10@'
tRp495
tp496
a(S'boston'
(dp497
S'n_forests'
p498
I100
sS'n_jobs'
p499
I-1
sS'weight_extent'
p500
I0
sS'n_trees'
p501
I1
sS'k'
I4
sS'n_features_to_predict'
p502
F0.5
sS'kmeans_type'
p503
S'normal'
p504
sS'max_depth'
p505
I3
sg11
(g13
S"~'\r\xee\x82)\xe2?"
tRp506
g11
(g13
S'\x00\x00\x00\x00\x00\x00\x10@'
tRp507
tp508
a(S'diabetes'
(dp509
S'n_forests'
p510
I100
sS'n_jobs'
p511
I-1
sS'weight_extent'
p512
I0
sS'n_trees'
p513
I1
sS'k'
I4
sS'n_features_to_predict'
p514
F0.5
sS'kmeans_type'
p515
S'squishy'
p516
sS'max_depth'
p517
I3
sg11
(g13
S'\x101\xd2{\x0e\xb1\xe4?'
tRp518
g11
(g13
S'\x00\x00\x00\x00\x00\x00\x10@'
tRp519
tp520
a(S'diabetes'
(dp521
S'n_forests'
p522
I100
sS'n_jobs'
p523
I-1
sS'weight_extent'
p524
I0
sS'n_trees'
p525
I1
sS'k'
I4
sS'n_features_to_predict'
p526
F0.5
sS'kmeans_type'
p527
S'normal'
p528
sS'max_depth'
p529
I3
sg11
(g13
S'\xf6*\xcd\x04\x89_\xe5?'
tRp530
g11
(g13
S'\x00\x00\x00\x00\x00\x00\x10@'
tRp531
tp532
a(S'iris'
(dp533
S'n_forests'
p534
I100
sS'n_jobs'
p535
I-1
sS'weight_extent'
p536
I0
sS'n_trees'
p537
I1
sS'k'
I4
sS'n_features_to_predict'
p538
F0.5
sS'kmeans_type'
p539
S'squishy'
p540
sS'max_depth'
p541
I3
sg11
(g13
S'\x9c\xb6\xc4\xed\xe1\x01\xce?'
tRp542
g11
(g13
S'\x00\x00\x00\x00\x00\x00\x10@'
tRp543
tp544
a(S'iris'
(dp545
S'n_forests'
p546
I100
sS'n_jobs'
p547
I-1
sS'weight_extent'
p548
I0
sS'n_trees'
p549
I1
sS'k'
I4
sS'n_features_to_predict'
p550
F0.5
sS'kmeans_type'
p551
S'normal'
p552
sS'max_depth'
p553
I3
sg11
(g13
S'\x96\xaa+\xaa\xedH\xce?'
tRp554
g11
(g13
S'\x00\x00\x00\x00\x00\x00\x10@'
tRp555
tp556
a(S'breast_cancer'
(dp557
S'n_forests'
p558
I100
sS'n_jobs'
p559
I-1
sS'weight_extent'
p560
I0
sS'n_trees'
p561
I1
sS'k'
I4
sS'n_features_to_predict'
p562
F0.5
sS'kmeans_type'
p563
S'squishy'
p564
sS'max_depth'
p565
I3
sg11
(g13
S'\xc2\xe7\xfb\xd4o[\xe3?'
tRp566
g11
(g13
S'\x00\x00\x00\x00\x00\x00\x10@'
tRp567
tp568
a(S'breast_cancer'
(dp569
S'n_forests'
p570
I100
sS'n_jobs'
p571
I-1
sS'weight_extent'
p572
I0
sS'n_trees'
p573
I1
sS'k'
I4
sS'n_features_to_predict'
p574
F0.5
sS'kmeans_type'
p575
S'normal'
p576
sS'max_depth'
p577
I3
sg11
(g13
S'\xf0\xa0\x93\xef\x18t\xdf?'
tRp578
g11
(g13
S'\x00\x00\x00\x00\x00\x00\x10@'
tRp579
tp580
a(S'boston'
(dp581
S'n_forests'
p582
I100
sS'n_jobs'
p583
I-1
sS'weight_extent'
p584
I0
sS'n_trees'
p585
I1
sS'k'
I5
sS'n_features_to_predict'
p586
F0.29999999999999999
sS'kmeans_type'
p587
S'squishy'
p588
sS'max_depth'
p589
I3
sg11
(g13
S'v\xe8\xe3\xca\xe7x\xdd?'
tRp590
g11
(g13
S'\x00\x00\x00\x00\x00\x00\x14@'
tRp591
tp592
a(S'boston'
(dp593
S'n_forests'
p594
I100
sS'n_jobs'
p595
I-1
sS'weight_extent'
p596
I0
sS'n_trees'
p597
I1
sS'k'
I5
sS'n_features_to_predict'
p598
F0.29999999999999999
sS'kmeans_type'
p599
S'normal'
p600
sS'max_depth'
p601
I3
sg11
(g13
S'\xbb+\xdf:\x8e#\xdc?'
tRp602
g11
(g13
S'\x00\x00\x00\x00\x00\x00\x14@'
tRp603
tp604
a(S'diabetes'
(dp605
S'n_forests'
p606
I100
sS'n_jobs'
p607
I-1
sS'weight_extent'
p608
I0
sS'n_trees'
p609
I1
sS'k'
I5
sS'n_features_to_predict'
p610
F0.29999999999999999
sS'kmeans_type'
p611
S'squishy'
p612
sS'max_depth'
p613
I3
sg11
(g13
S'@Ub\xef\x0f\xe2\xe4?'
tRp614
g11
(g13
S'\x00\x00\x00\x00\x00\x00\x14@'
tRp615
tp616
a(S'diabetes'
(dp617
S'n_forests'
p618
I100
sS'n_jobs'
p619
I-1
sS'weight_extent'
p620
I0
sS'n_trees'
p621
I1
sS'k'
I5
sS'n_features_to_predict'
p622
F0.29999999999999999
sS'kmeans_type'
p623
S'normal'
p624
sS'max_depth'
p625
I3
sg11
(g13
S'\xd8\xc5"0V\xd9\xe4?'
tRp626
g11
(g13
S'\x00\x00\x00\x00\x00\x00\x14@'
tRp627
tp628
a(S'iris'
(dp629
S'n_forests'
p630
I100
sS'n_jobs'
p631
I-1
sS'weight_extent'
p632
I0
sS'n_trees'
p633
I1
sS'k'
I5
sS'n_features_to_predict'
p634
F0.29999999999999999
sS'kmeans_type'
p635
S'squishy'
p636
sS'max_depth'
p637
I3
sg11
(g13
S'\xbeW\x98\xb4Q\x98\xcc?'
tRp638
g11
(g13
S'\x00\x00\x00\x00\x00\x00\x14@'
tRp639
tp640
a(S'iris'
(dp641
S'n_forests'
p642
I100
sS'n_jobs'
p643
I-1
sS'weight_extent'
p644
I0
sS'n_trees'
p645
I1
sS'k'
I5
sS'n_features_to_predict'
p646
F0.29999999999999999
sS'kmeans_type'
p647
S'normal'
p648
sS'max_depth'
p649
I3
sg11
(g13
S'\t\x9c\xb9?\xe7q\xcb?'
tRp650
g11
(g13
S'\x00\x00\x00\x00\x00\x00\x14@'
tRp651
tp652
a(S'breast_cancer'
(dp653
S'n_forests'
p654
I100
sS'n_jobs'
p655
I-1
sS'weight_extent'
p656
I0
sS'n_trees'
p657
I1
sS'k'
I5
sS'n_features_to_predict'
p658
F0.29999999999999999
sS'kmeans_type'
p659
S'squishy'
p660
sS'max_depth'
p661
I3
sg11
(g13
S'rr\xae\x80\x94\x05\xe4?'
tRp662
g11
(g13
S'\x00\x00\x00\x00\x00\x00\x14@'
tRp663
tp664
a(S'breast_cancer'
(dp665
S'n_forests'
p666
I100
sS'n_jobs'
p667
I-1
sS'weight_extent'
p668
I0
sS'n_trees'
p669
I1
sS'k'
I5
sS'n_features_to_predict'
p670
F0.29999999999999999
sS'kmeans_type'
p671
S'normal'
p672
sS'max_depth'
p673
I3
sg11
(g13
S'\xb2_\x0c#\xa8i\xdf?'
tRp674
g11
(g13
S'\x00\x00\x00\x00\x00\x00\x14@'
tRp675
tp676
a(S'boston'
(dp677
S'n_forests'
p678
I100
sS'n_jobs'
p679
I-1
sS'weight_extent'
p680
I0
sS'n_trees'
p681
I1
sS'k'
I5
sS'n_features_to_predict'
p682
F0.5
sS'kmeans_type'
p683
S'squishy'
p684
sS'max_depth'
p685
I3
sg11
(g13
S'\x93\xea\xb8\xc0|\x0b\xdd?'
tRp686
g11
(g13
S'\x00\x00\x00\x00\x00\x00\x14@'
tRp687
tp688
a(S'boston'
(dp689
S'n_forests'
p690
I100
sS'n_jobs'
p691
I-1
sS'weight_extent'
p692
I0
sS'n_trees'
p693
I1
sS'k'
I5
sS'n_features_to_predict'
p694
F0.5
sS'kmeans_type'
p695
S'normal'
p696
sS'max_depth'
p697
I3
sg11
(g13
S'm\x8f\xc0C:E\xe0?'
tRp698
g11
(g13
S'\x00\x00\x00\x00\x00\x00\x14@'
tRp699
tp700
a(S'diabetes'
(dp701
S'n_forests'
p702
I100
sS'n_jobs'
p703
I-1
sS'weight_extent'
p704
I0
sS'n_trees'
p705
I1
sS'k'
I5
sS'n_features_to_predict'
p706
F0.5
sS'kmeans_type'
p707
S'squishy'
p708
sS'max_depth'
p709
I3
sg11
(g13
S'\xe5\xed\xb6\xfe\xdd\xea\xe3?'
tRp710
g11
(g13
S'\x00\x00\x00\x00\x00\x00\x14@'
tRp711
tp712
a(S'diabetes'
(dp713
S'n_forests'
p714
I100
sS'n_jobs'
p715
I-1
sS'weight_extent'
p716
I0
sS'n_trees'
p717
I1
sS'k'
I5
sS'n_features_to_predict'
p718
F0.5
sS'kmeans_type'
p719
S'normal'
p720
sS'max_depth'
p721
I3
sg11
(g13
S'VLUW\xe6\xfd\xe3?'
tRp722
g11
(g13
S'\x00\x00\x00\x00\x00\x00\x14@'
tRp723
tp724
a(S'iris'
(dp725
S'n_forests'
p726
I100
sS'n_jobs'
p727
I-1
sS'weight_extent'
p728
I0
sS'n_trees'
p729
I1
sS'k'
I5
sS'n_features_to_predict'
p730
F0.5
sS'kmeans_type'
p731
S'squishy'
p732
sS'max_depth'
p733
I3
sg11
(g13
S'\x93\xdf\xc924\x80\xca?'
tRp734
g11
(g13
S'\x00\x00\x00\x00\x00\x00\x14@'
tRp735
tp736
a(S'iris'
(dp737
S'n_forests'
p738
I100
sS'n_jobs'
p739
I-1
sS'weight_extent'
p740
I0
sS'n_trees'
p741
I1
sS'k'
I5
sS'n_features_to_predict'
p742
F0.5
sS'kmeans_type'
p743
S'normal'
p744
sS'max_depth'
p745
I3
sg11
(g13
S'^\x1akmr\x08\xcc?'
tRp746
g11
(g13
S'\x00\x00\x00\x00\x00\x00\x14@'
tRp747
tp748
a(S'breast_cancer'
(dp749
S'n_forests'
p750
I100
sS'n_jobs'
p751
I-1
sS'weight_extent'
p752
I0
sS'n_trees'
p753
I1
sS'k'
I5
sS'n_features_to_predict'
p754
F0.5
sS'kmeans_type'
p755
S'squishy'
p756
sS'max_depth'
p757
I3
sg11
(g13
S'\xb8\xdd\xbe\xac\xf3X\xe1?'
tRp758
g11
(g13
S'\x00\x00\x00\x00\x00\x00\x14@'
tRp759
tp760
a(S'breast_cancer'
(dp761
S'n_forests'
p762
I100
sS'n_jobs'
p763
I-1
sS'weight_extent'
p764
I0
sS'n_trees'
p765
I1
sS'k'
I5
sS'n_features_to_predict'
p766
F0.5
sS'kmeans_type'
p767
S'normal'
p768
sS'max_depth'
p769
I3
sg11
(g13
S'F\x8d\xb1\x9d\xdf*\xde?'
tRp770
g11
(g13
S'\x00\x00\x00\x00\x00\x00\x14@'
tRp771
tp772
a(S'boston'
(dp773
S'n_forests'
p774
I100
sS'n_jobs'
p775
I-1
sS'weight_extent'
p776
I0
sS'n_trees'
p777
I1
sS'k'
I6
sS'n_features_to_predict'
p778
F0.29999999999999999
sS'kmeans_type'
p779
S'squishy'
p780
sS'max_depth'
p781
I3
sg11
(g13
S'\xe2W\x9b\xad>W\xd8?'
tRp782
g11
(g13
S'\x00\x00\x00\x00\x00\x00\x18@'
tRp783
tp784
a(S'boston'
(dp785
S'n_forests'
p786
I100
sS'n_jobs'
p787
I-1
sS'weight_extent'
p788
I0
sS'n_trees'
p789
I1
sS'k'
I6
sS'n_features_to_predict'
p790
F0.29999999999999999
sS'kmeans_type'
p791
S'normal'
p792
sS'max_depth'
p793
I3
sg11
(g13
S'\x8bQ.\xd7+\xf0\xdb?'
tRp794
g11
(g13
S'\x00\x00\x00\x00\x00\x00\x18@'
tRp795
tp796
a(S'diabetes'
(dp797
S'n_forests'
p798
I100
sS'n_jobs'
p799
I-1
sS'weight_extent'
p800
I0
sS'n_trees'
p801
I1
sS'k'
I6
sS'n_features_to_predict'
p802
F0.29999999999999999
sS'kmeans_type'
p803
S'squishy'
p804
sS'max_depth'
p805
I3
sg11
(g13
S'h\x99.\xf3F<\xe3?'
tRp806
g11
(g13
S'\x00\x00\x00\x00\x00\x00\x18@'
tRp807
tp808
a(S'diabetes'
(dp809
S'n_forests'
p810
I100
sS'n_jobs'
p811
I-1
sS'weight_extent'
p812
I0
sS'n_trees'
p813
I1
sS'k'
I6
sS'n_features_to_predict'
p814
F0.29999999999999999
sS'kmeans_type'
p815
S'normal'
p816
sS'max_depth'
p817
I3
sg11
(g13
S'j`\xa4\xbc\xe8S\xe3?'
tRp818
g11
(g13
S'\x00\x00\x00\x00\x00\x00\x18@'
tRp819
tp820
a(S'iris'
(dp821
S'n_forests'
p822
I100
sS'n_jobs'
p823
I-1
sS'weight_extent'
p824
I0
sS'n_trees'
p825
I1
sS'k'
I6
sS'n_features_to_predict'
p826
F0.29999999999999999
sS'kmeans_type'
p827
S'squishy'
p828
sS'max_depth'
p829
I3
sg11
(g13
S'\xccC|\x85\xa7\xdb\xc9?'
tRp830
g11
(g13
S'\x00\x00\x00\x00\x00\x00\x18@'
tRp831
tp832
a(S'iris'
(dp833
S'n_forests'
p834
I100
sS'n_jobs'
p835
I-1
sS'weight_extent'
p836
I0
sS'n_trees'
p837
I1
sS'k'
I6
sS'n_features_to_predict'
p838
F0.29999999999999999
sS'kmeans_type'
p839
S'normal'
p840
sS'max_depth'
p841
I3
sg11
(g13
S'A|\xbd\x1d\xe28\xcb?'
tRp842
g11
(g13
S'\x00\x00\x00\x00\x00\x00\x18@'
tRp843
tp844
a(S'breast_cancer'
(dp845
S'n_forests'
p846
I100
sS'n_jobs'
p847
I-1
sS'weight_extent'
p848
I0
sS'n_trees'
p849
I1
sS'k'
I6
sS'n_features_to_predict'
p850
F0.29999999999999999
sS'kmeans_type'
p851
S'squishy'
p852
sS'max_depth'
p853
I3
sg11
(g13
S'\x0e\xe1\xb5\xb5\xe6\xc4\xe0?'
tRp854
g11
(g13
S'\x00\x00\x00\x00\x00\x00\x18@'
tRp855
tp856
a(S'breast_cancer'
(dp857
S'n_forests'
p858
I100
sS'n_jobs'
p859
I-1
sS'weight_extent'
p860
I0
sS'n_trees'
p861
I1
sS'k'
I6
sS'n_features_to_predict'
p862
F0.29999999999999999
sS'kmeans_type'
p863
S'normal'
p864
sS'max_depth'
p865
I3
sg11
(g13
S'\x16.\x08\xaf\xe4\x11\xe1?'
tRp866
g11
(g13
S'\x00\x00\x00\x00\x00\x00\x18@'
tRp867
tp868
a(S'boston'
(dp869
S'n_forests'
p870
I100
sS'n_jobs'
p871
I-1
sS'weight_extent'
p872
I0
sS'n_trees'
p873
I1
sS'k'
I6
sS'n_features_to_predict'
p874
F0.5
sS'kmeans_type'
p875
S'squishy'
p876
sS'max_depth'
p877
I3
sg11
(g13
S'\xddZ8\xfe|b\xda?'
tRp878
g11
(g13
S'\x00\x00\x00\x00\x00\x00\x18@'
tRp879
tp880
a(S'boston'
(dp881
S'n_forests'
p882
I100
sS'n_jobs'
p883
I-1
sS'weight_extent'
p884
I0
sS'n_trees'
p885
I1
sS'k'
I6
sS'n_features_to_predict'
p886
F0.5
sS'kmeans_type'
p887
S'normal'
p888
sS'max_depth'
p889
I3
sg11
(g13
S'f\xdf\xe1\xabG\xfb\xdf?'
tRp890
g11
(g13
S'\x00\x00\x00\x00\x00\x00\x18@'
tRp891
tp892
a(S'diabetes'
(dp893
S'n_forests'
p894
I100
sS'n_jobs'
p895
I-1
sS'weight_extent'
p896
I0
sS'n_trees'
p897
I1
sS'k'
I6
sS'n_features_to_predict'
p898
F0.5
sS'kmeans_type'
p899
S'squishy'
p900
sS'max_depth'
p901
I3
sg11
(g13
S'\x8b(\xa6h\x84<\xe3?'
tRp902
g11
(g13
S'\x00\x00\x00\x00\x00\x00\x18@'
tRp903
tp904
a(S'diabetes'
(dp905
S'n_forests'
p906
I100
sS'n_jobs'
p907
I-1
sS'weight_extent'
p908
I0
sS'n_trees'
p909
I1
sS'k'
I6
sS'n_features_to_predict'
p910
F0.5
sS'kmeans_type'
p911
S'normal'
p912
sS'max_depth'
p913
I3
sg11
(g13
S'\xf5\xb3e\xf0m2\xe3?'
tRp914
g11
(g13
S'\x00\x00\x00\x00\x00\x00\x18@'
tRp915
tp916
a(S'iris'
(dp917
S'n_forests'
p918
I100
sS'n_jobs'
p919
I-1
sS'weight_extent'
p920
I0
sS'n_trees'
p921
I1
sS'k'
I6
sS'n_features_to_predict'
p922
F0.5
sS'kmeans_type'
p923
S'squishy'
p924
sS'max_depth'
p925
I3
sg11
(g13
S'\xd2m\xd8\xcb\x9cY\xc9?'
tRp926
g11
(g13
S'\x00\x00\x00\x00\x00\x00\x18@'
tRp927
tp928
a(S'iris'
(dp929
S'n_forests'
p930
I100
sS'n_jobs'
p931
I-1
sS'weight_extent'
p932
I0
sS'n_trees'
p933
I1
sS'k'
I6
sS'n_features_to_predict'
p934
F0.5
sS'kmeans_type'
p935
S'normal'
p936
sS'max_depth'
p937
I3
sg11
(g13
S'}\xdd\xa4Q\xf9y\xca?'
tRp938
g11
(g13
S'\x00\x00\x00\x00\x00\x00\x18@'
tRp939
tp940
a(S'breast_cancer'
(dp941
S'n_forests'
p942
I100
sS'n_jobs'
p943
I-1
sS'weight_extent'
p944
I0
sS'n_trees'
p945
I1
sS'k'
I6
sS'n_features_to_predict'
p946
F0.5
sS'kmeans_type'
p947
S'squishy'
p948
sS'max_depth'
p949
I3
sg11
(g13
S'm(\x162c\x1e\xe2?'
tRp950
g11
(g13
S'\x00\x00\x00\x00\x00\x00\x18@'
tRp951
tp952
a(S'breast_cancer'
(dp953
S'n_forests'
p954
I100
sS'n_jobs'
p955
I-1
sS'weight_extent'
p956
I0
sS'n_trees'
p957
I1
sS'k'
I6
sS'n_features_to_predict'
p958
F0.5
sS'kmeans_type'
p959
S'normal'
p960
sS'max_depth'
p961
I3
sg11
(g13
S'\x7f\xd4\r\xf2\xf0\xdb\xe4?'
tRp962
g11
(g13
S'\x00\x00\x00\x00\x00\x00\x18@'
tRp963
tp964
a(S'boston'
(dp965
S'n_forests'
p966
I100
sS'n_jobs'
p967
I-1
sS'weight_extent'
p968
I0
sS'n_trees'
p969
I1
sS'k'
I8
sS'n_features_to_predict'
p970
F0.29999999999999999
sS'kmeans_type'
p971
S'squishy'
p972
sS'max_depth'
p973
I3
sg11
(g13
S'\xf6\x05\xc5\xa5\x17\xb7\xde?'
tRp974
g11
(g13
S'\x00\x00\x00\x00\x00\x00\x1e@'
tRp975
tp976
a(S'boston'
(dp977
S'n_forests'
p978
I100
sS'n_jobs'
p979
I-1
sS'weight_extent'
p980
I0
sS'n_trees'
p981
I1
sS'k'
I8
sS'n_features_to_predict'
p982
F0.29999999999999999
sS'kmeans_type'
p983
S'normal'
p984
sS'max_depth'
p985
I3
sg11
(g13
S'H\xc6\xd0\xa4oW\xd7?'
tRp986
g11
(g13
S'\x9a\x99\x99\x99\x99\x99\x1f@'
tRp987
tp988
a(S'diabetes'
(dp989
S'n_forests'
p990
I100
sS'n_jobs'
p991
I-1
sS'weight_extent'
p992
I0
sS'n_trees'
p993
I1
sS'k'
I8
sS'n_features_to_predict'
p994
F0.29999999999999999
sS'kmeans_type'
p995
S'squishy'
p996
sS'max_depth'
p997
I3
sg11
(g13
S'\xb5,_3%\xd2\xe2?'
tRp998
g11
(g13
S'\x00\x00\x00\x00\x00\x00 @'
tRp999
tp1000
a(S'diabetes'
(dp1001
S'n_forests'
p1002
I100
sS'n_jobs'
p1003
I-1
sS'weight_extent'
p1004
I0
sS'n_trees'
p1005
I1
sS'k'
I8
sS'n_features_to_predict'
p1006
F0.29999999999999999
sS'kmeans_type'
p1007
S'normal'
p1008
sS'max_depth'
p1009
I3
sg11
(g13
S'\xb2\\\xec\xf2&\xc5\xe2?'
tRp1010
g11
(g13
S'\x00\x00\x00\x00\x00\x00 @'
tRp1011
tp1012
a(S'iris'
(dp1013
S'n_forests'
p1014
I100
sS'n_jobs'
p1015
I-1
sS'weight_extent'
p1016
I0
sS'n_trees'
p1017
I1
sS'k'
I8
sS'n_features_to_predict'
p1018
F0.29999999999999999
sS'kmeans_type'
p1019
S'squishy'
p1020
sS'max_depth'
p1021
I3
sg11
(g13
S'\x1d\x137\x13\xd2\xa1\xc9?'
tRp1022
g11
(g13
S'\x00\x00\x00\x00\x00\x00 @'
tRp1023
tp1024
a(S'iris'
(dp1025
S'n_forests'
p1026
I100
sS'n_jobs'
p1027
I-1
sS'weight_extent'
p1028
I0
sS'n_trees'
p1029
I1
sS'k'
I8
sS'n_features_to_predict'
p1030
F0.29999999999999999
sS'kmeans_type'
p1031
S'normal'
p1032
sS'max_depth'
p1033
I3
sg11
(g13
S'\xb2\xdc\x90\xf3\x05~\xc8?'
tRp1034
g11
(g13
S'\x00\x00\x00\x00\x00\x00 @'
tRp1035
tp1036
a(S'breast_cancer'
(dp1037
S'n_forests'
p1038
I100
sS'n_jobs'
p1039
I-1
sS'weight_extent'
p1040
I0
sS'n_trees'
p1041
I1
sS'k'
I8
sS'n_features_to_predict'
p1042
F0.29999999999999999
sS'kmeans_type'
p1043
S'squishy'
p1044
sS'max_depth'
p1045
I3
sg11
(g13
S'z \xe5U\x80/\xe1?'
tRp1046
g11
(g13
S'\x9a\x99\x99\x99\x99\x99\x1f@'
tRp1047
tp1048
a(S'breast_cancer'
(dp1049
S'n_forests'
p1050
I100
sS'n_jobs'
p1051
I-1
sS'weight_extent'
p1052
I0
sS'n_trees'
p1053
I1
sS'k'
I8
sS'n_features_to_predict'
p1054
F0.29999999999999999
sS'kmeans_type'
p1055
S'normal'
p1056
sS'max_depth'
p1057
I3
sg11
(g13
S'*\xeaK\x9e\xe9e\xde?'
tRp1058
g11
(g13
S'\x00\x00\x00\x00\x00\x00 @'
tRp1059
tp1060
a(S'boston'
(dp1061
S'n_forests'
p1062
I100
sS'n_jobs'
p1063
I-1
sS'weight_extent'
p1064
I0
sS'n_trees'
p1065
I1
sS'k'
I8
sS'n_features_to_predict'
p1066
F0.5
sS'kmeans_type'
p1067
S'squishy'
p1068
sS'max_depth'
p1069
I3
sg11
(g13
S'\x90\x8c\x0c\x1bC\xa7\xdd?'
tRp1070
g11
(g13
S'\x9a\x99\x99\x99\x99\x99\x1f@'
tRp1071
tp1072
a(S'boston'
(dp1073
S'n_forests'
p1074
I100
sS'n_jobs'
p1075
I-1
sS'weight_extent'
p1076
I0
sS'n_trees'
p1077
I1
sS'k'
I8
sS'n_features_to_predict'
p1078
F0.5
sS'kmeans_type'
p1079
S'normal'
p1080
sS'max_depth'
p1081
I3
sg11
(g13
S'mm\x04v}A\xdb?'
tRp1082
g11
(g13
S'\x9a\x99\x99\x99\x99\x99\x1f@'
tRp1083
tp1084
a(S'diabetes'
(dp1085
S'n_forests'
p1086
I100
sS'n_jobs'
p1087
I-1
sS'weight_extent'
p1088
I0
sS'n_trees'
p1089
I1
sS'k'
I8
sS'n_features_to_predict'
p1090
F0.5
sS'kmeans_type'
p1091
S'squishy'
p1092
sS'max_depth'
p1093
I3
sg11
(g13
S'\x80\xb4\x8c\xf5\xf6t\xe2?'
tRp1094
g11
(g13
S'\x00\x00\x00\x00\x00\x00 @'
tRp1095
tp1096
a(S'diabetes'
(dp1097
S'n_forests'
p1098
I100
sS'n_jobs'
p1099
I-1
sS'weight_extent'
p1100
I0
sS'n_trees'
p1101
I1
sS'k'
I8
sS'n_features_to_predict'
p1102
F0.5
sS'kmeans_type'
p1103
S'normal'
p1104
sS'max_depth'
p1105
I3
sg11
(g13
S'\x15\x01&\xe2\x9b\x8a\xe2?'
tRp1106
g11
(g13
S'\x9a\x99\x99\x99\x99\x99\x1f@'
tRp1107
tp1108
a(S'iris'
(dp1109
S'n_forests'
p1110
I100
sS'n_jobs'
p1111
I-1
sS'weight_extent'
p1112
I0
sS'n_trees'
p1113
I1
sS'k'
I8
sS'n_features_to_predict'
p1114
F0.5
sS'kmeans_type'
p1115
S'squishy'
p1116
sS'max_depth'
p1117
I3
sg11
(g13
S'\xd8N\xd7\xa1\x9b\xe6\xc8?'
tRp1118
g11
(g13
S'\x00\x00\x00\x00\x00\x00 @'
tRp1119
tp1120
a(S'iris'
(dp1121
S'n_forests'
p1122
I100
sS'n_jobs'
p1123
I-1
sS'weight_extent'
p1124
I0
sS'n_trees'
p1125
I1
sS'k'
I8
sS'n_features_to_predict'
p1126
F0.5
sS'kmeans_type'
p1127
S'normal'
p1128
sS'max_depth'
p1129
I3
sg11
(g13
S'\xfc\xfb\xb2\xb6\x96\xc8\xc8?'
tRp1130
g11
(g13
S'\x00\x00\x00\x00\x00\x00 @'
tRp1131
tp1132
a(S'breast_cancer'
(dp1133
S'n_forests'
p1134
I100
sS'n_jobs'
p1135
I-1
sS'weight_extent'
p1136
I0
sS'n_trees'
p1137
I1
sS'k'
I8
sS'n_features_to_predict'
p1138
F0.5
sS'kmeans_type'
p1139
S'squishy'
p1140
sS'max_depth'
p1141
I3
sg11
(g13
S'\xd2\x16\xeb\xf4\x98\xb6\xde?'
tRp1142
g11
(g13
S'\x00\x00\x00\x00\x00\x00 @'
tRp1143
tp1144
a(S'breast_cancer'
(dp1145
S'n_forests'
p1146
I100
sS'n_jobs'
p1147
I-1
sS'weight_extent'
p1148
I0
sS'n_trees'
p1149
I1
sS'k'
I8
sS'n_features_to_predict'
p1150
F0.5
sS'kmeans_type'
p1151
S'normal'
p1152
sS'max_depth'
p1153
I3
sg11
(g13
S'\x1d\xcf\xb2\x812\xcc\xde?'
tRp1154
g11
(g13
S'\x00\x00\x00\x00\x00\x00 @'
tRp1155
tp1156
a(S'boston'
(dp1157
S'n_forests'
p1158
I100
sS'n_jobs'
p1159
I-1
sS'weight_extent'
p1160
I0
sS'n_trees'
p1161
I1
sS'k'
I10
sS'n_features_to_predict'
p1162
F0.29999999999999999
sS'kmeans_type'
p1163
S'squishy'
p1164
sS'max_depth'
p1165
I3
sg11
(g13
S'2n\xe2\x03\xd5\xc0\xd8?'
tRp1166
g11
(g13
S'ffffff!@'
tRp1167
tp1168
a(S'boston'
(dp1169
S'n_forests'
p1170
I100
sS'n_jobs'
p1171
I-1
sS'weight_extent'
p1172
I0
sS'n_trees'
p1173
I1
sS'k'
I10
sS'n_features_to_predict'
p1174
F0.29999999999999999
sS'kmeans_type'
p1175
S'normal'
p1176
sS'max_depth'
p1177
I3
sg11
(g13
S'\r\xc9\xfa]h\xb4\xdc?'
tRp1178
g11
(g13
S'\xcd\xcc\xcc\xcc\xcc\xcc"@'
tRp1179
tp1180
a(S'diabetes'
(dp1181
S'n_forests'
p1182
I100
sS'n_jobs'
p1183
I-1
sS'weight_extent'
p1184
I0
sS'n_trees'
p1185
I1
sS'k'
I10
sS'n_features_to_predict'
p1186
F0.29999999999999999
sS'kmeans_type'
p1187
S'squishy'
p1188
sS'max_depth'
p1189
I3
sg11
(g13
S'\xa0\x9c;\t\xce\x1e\xe2?'
tRp1190
g11
(g13
S'ffffff#@'
tRp1191
tp1192
a(S'diabetes'
(dp1193
S'n_forests'
p1194
I100
sS'n_jobs'
p1195
I-1
sS'weight_extent'
p1196
I0
sS'n_trees'
p1197
I1
sS'k'
I10
sS'n_features_to_predict'
p1198
F0.29999999999999999
sS'kmeans_type'
p1199
S'normal'
p1200
sS'max_depth'
p1201
I3
sg11
(g13
S'\x9bQ}\xeb\x89\x01\xe2?'
tRp1202
g11
(g13
S'\x00\x00\x00\x00\x00\x00$@'
tRp1203
tp1204
a(S'iris'
(dp1205
S'n_forests'
p1206
I100
sS'n_jobs'
p1207
I-1
sS'weight_extent'
p1208
I0
sS'n_trees'
p1209
I1
sS'k'
I10
sS'n_features_to_predict'
p1210
F0.29999999999999999
sS'kmeans_type'
p1211
S'squishy'
p1212
sS'max_depth'
p1213
I3
sg11
(g13
S'\xb8\xf8\xcaD9\n\xc9?'
tRp1214
g11
(g13
S'\x00\x00\x00\x00\x00\x00$@'
tRp1215
tp1216
a(S'iris'
(dp1217
S'n_forests'
p1218
I100
sS'n_jobs'
p1219
I-1
sS'weight_extent'
p1220
I0
sS'n_trees'
p1221
I1
sS'k'
I10
sS'n_features_to_predict'
p1222
F0.29999999999999999
sS'kmeans_type'
p1223
S'normal'
p1224
sS'max_depth'
p1225
I3
sg11
(g13
S'\x8eJ?\x15E\x03\xc7?'
tRp1226
g11
(g13
S'\x00\x00\x00\x00\x00\x00#@'
tRp1227
tp1228
a(S'breast_cancer'
(dp1229
S'n_forests'
p1230
I100
sS'n_jobs'
p1231
I-1
sS'weight_extent'
p1232
I0
sS'n_trees'
p1233
I1
sS'k'
I10
sS'n_features_to_predict'
p1234
F0.29999999999999999
sS'kmeans_type'
p1235
S'squishy'
p1236
sS'max_depth'
p1237
I3
sg11
(g13
S'\xc6\xb5#\x13{\r\xd7?'
tRp1238
g11
(g13
S'\x9a\x99\x99\x99\x99\x99#@'
tRp1239
tp1240
a(S'breast_cancer'
(dp1241
S'n_forests'
p1242
I100
sS'n_jobs'
p1243
I-1
sS'weight_extent'
p1244
I0
sS'n_trees'
p1245
I1
sS'k'
I10
sS'n_features_to_predict'
p1246
F0.29999999999999999
sS'kmeans_type'
p1247
S'normal'
p1248
sS'max_depth'
p1249
I3
sg11
(g13
S'\x9eQ\xf1\xc2\xa4\x05\xe3?'
tRp1250
g11
(g13
S'\xcd\xcc\xcc\xcc\xcc\xcc#@'
tRp1251
tp1252
a(S'boston'
(dp1253
S'n_forests'
p1254
I100
sS'n_jobs'
p1255
I-1
sS'weight_extent'
p1256
I0
sS'n_trees'
p1257
I1
sS'k'
I10
sS'n_features_to_predict'
p1258
F0.5
sS'kmeans_type'
p1259
S'squishy'
p1260
sS'max_depth'
p1261
I3
sg11
(g13
S's\n\xbb\xb3\xf7<\xd8?'
tRp1262
g11
(g13
S'ffffff"@'
tRp1263
tp1264
a(S'boston'
(dp1265
S'n_forests'
p1266
I100
sS'n_jobs'
p1267
I-1
sS'weight_extent'
p1268
I0
sS'n_trees'
p1269
I1
sS'k'
I10
sS'n_features_to_predict'
p1270
F0.5
sS'kmeans_type'
p1271
S'normal'
p1272
sS'max_depth'
p1273
I3
sg11
(g13
S'\xeay\x88\xaaM\x1c\xd4?'
tRp1274
g11
(g13
S'\x9a\x99\x99\x99\x99\x99#@'
tRp1275
tp1276
a(S'diabetes'
(dp1277
S'n_forests'
p1278
I100
sS'n_jobs'
p1279
I-1
sS'weight_extent'
p1280
I0
sS'n_trees'
p1281
I1
sS'k'
I10
sS'n_features_to_predict'
p1282
F0.5
sS'kmeans_type'
p1283
S'squishy'
p1284
sS'max_depth'
p1285
I3
sg11
(g13
S'\x875\xf8t\x064\xe2?'
tRp1286
g11
(g13
S'\x00\x00\x00\x00\x00\x00$@'
tRp1287
tp1288
a(S'diabetes'
(dp1289
S'n_forests'
p1290
I100
sS'n_jobs'
p1291
I-1
sS'weight_extent'
p1292
I0
sS'n_trees'
p1293
I1
sS'k'
I10
sS'n_features_to_predict'
p1294
F0.5
sS'kmeans_type'
p1295
S'normal'
p1296
sS'max_depth'
p1297
I3
sg11
(g13
S'3\xe4\xfb\x8f\x82\x98\xe1?'
tRp1298
g11
(g13
S'\x00\x00\x00\x00\x00\x00$@'
tRp1299
tp1300
a(S'iris'
(dp1301
S'n_forests'
p1302
I100
sS'n_jobs'
p1303
I-1
sS'weight_extent'
p1304
I0
sS'n_trees'
p1305
I1
sS'k'
I10
sS'n_features_to_predict'
p1306
F0.5
sS'kmeans_type'
p1307
S'squishy'
p1308
sS'max_depth'
p1309
I3
sg11
(g13
S'\xca\xa8\xf22\xb4Z\xc8?'
tRp1310
g11
(g13
S'\x00\x00\x00\x00\x00\x00$@'
tRp1311
tp1312
a(S'iris'
(dp1313
S'n_forests'
p1314
I100
sS'n_jobs'
p1315
I-1
sS'weight_extent'
p1316
I0
sS'n_trees'
p1317
I1
sS'k'
I10
sS'n_features_to_predict'
p1318
F0.5
sS'kmeans_type'
p1319
S'normal'
p1320
sS'max_depth'
p1321
I3
sg11
(g13
S'9\xf7\x05|H\r\xc9?'
tRp1322
g11
(g13
S'\x00\x00\x00\x00\x00\x80#@'
tRp1323
tp1324
a(S'breast_cancer'
(dp1325
S'n_forests'
p1326
I100
sS'n_jobs'
p1327
I-1
sS'weight_extent'
p1328
I0
sS'n_trees'
p1329
I1
sS'k'
I10
sS'n_features_to_predict'
p1330
F0.5
sS'kmeans_type'
p1331
S'squishy'
p1332
sS'max_depth'
p1333
I3
sg11
(g13
S'Xm\xac\xc7z\n\xe0?'
tRp1334
g11
(g13
S'\x9a\x99\x99\x99\x99\x99#@'
tRp1335
tp1336
a(S'breast_cancer'
(dp1337
S'n_forests'
p1338
I100
sS'n_jobs'
p1339
I-1
sS'weight_extent'
p1340
I0
sS'n_trees'
p1341
I1
sS'k'
I10
sS'n_features_to_predict'
p1342
F0.5
sS'kmeans_type'
p1343
S'normal'
p1344
sS'max_depth'
p1345
I3
sg11
(g13
S'%8>\xc4TW\xe1?'
tRp1346
g11
(g13
S'\x00\x00\x00\x00\x00\x00$@'
tRp1347
tp1348
a(S'boston'
(dp1349
S'n_forests'
p1350
I100
sS'n_jobs'
p1351
I-1
sS'weight_extent'
p1352
I0
sS'n_trees'
p1353
I1
sS'k'
I2
sS'n_features_to_predict'
p1354
F0.29999999999999999
sS'kmeans_type'
p1355
S'squishy'
p1356
sS'max_depth'
p1357
I5
sg11
(g13
S']\x88w\xb8\xe9\xe4\xe5?'
tRp1358
g11
(g13
S'\x00\x00\x00\x00\x00\x00\x00@'
tRp1359
tp1360
a(S'boston'
(dp1361
S'n_forests'
p1362
I100
sS'n_jobs'
p1363
I-1
sS'weight_extent'
p1364
I0
sS'n_trees'
p1365
I1
sS'k'
I2
sS'n_features_to_predict'
p1366
F0.29999999999999999
sS'kmeans_type'
p1367
S'normal'
p1368
sS'max_depth'
p1369
I5
sg11
(g13
S'\xce\xd8\x9f{\xe5\x08\xe6?'
tRp1370
g11
(g13
S'\x00\x00\x00\x00\x00\x00\x00@'
tRp1371
tp1372
a(S'diabetes'
(dp1373
S'n_forests'
p1374
I100
sS'n_jobs'
p1375
I-1
sS'weight_extent'
p1376
I0
sS'n_trees'
p1377
I1
sS'k'
I2
sS'n_features_to_predict'
p1378
F0.29999999999999999
sS'kmeans_type'
p1379
S'squishy'
p1380
sS'max_depth'
p1381
I5
sg11
(g13
S'\xae`\xed)\xec\x85\xe8?'
tRp1382
g11
(g13
S'\x00\x00\x00\x00\x00\x00\x00@'
tRp1383
tp1384
a(S'diabetes'
(dp1385
S'n_forests'
p1386
I100
sS'n_jobs'
p1387
I-1
sS'weight_extent'
p1388
I0
sS'n_trees'
p1389
I1
sS'k'
I2
sS'n_features_to_predict'
p1390
F0.29999999999999999
sS'kmeans_type'
p1391
S'normal'
p1392
sS'max_depth'
p1393
I5
sg11
(g13
S'\x8e3Uy\x93\x18\xe8?'
tRp1394
g11
(g13
S'\x00\x00\x00\x00\x00\x00\x00@'
tRp1395
tp1396
a(S'iris'
(dp1397
S'n_forests'
p1398
I100
sS'n_jobs'
p1399
I-1
sS'weight_extent'
p1400
I0
sS'n_trees'
p1401
I1
sS'k'
I2
sS'n_features_to_predict'
p1402
F0.29999999999999999
sS'kmeans_type'
p1403
S'squishy'
p1404
sS'max_depth'
p1405
I5
sg11
(g13
S'h\xb7fd\xa0s\xe7?'
tRp1406
g11
(g13
S'\x00\x00\x00\x00\x00\x00\x00@'
tRp1407
tp1408
a(S'iris'
(dp1409
S'n_forests'
p1410
I100
sS'n_jobs'
p1411
I-1
sS'weight_extent'
p1412
I0
sS'n_trees'
p1413
I1
sS'k'
I2
sS'n_features_to_predict'
p1414
F0.29999999999999999
sS'kmeans_type'
p1415
S'normal'
p1416
sS'max_depth'
p1417
I5
sg11
(g13
S'\x87\xd6\x99R\x96\xdf\xe5?'
tRp1418
g11
(g13
S'\x00\x00\x00\x00\x00\x00\x00@'
tRp1419
tp1420
a(S'breast_cancer'
(dp1421
S'n_forests'
p1422
I100
sS'n_jobs'
p1423
I-1
sS'weight_extent'
p1424
I0
sS'n_trees'
p1425
I1
sS'k'
I2
sS'n_features_to_predict'
p1426
F0.29999999999999999
sS'kmeans_type'
p1427
S'squishy'
p1428
sS'max_depth'
p1429
I5
sg11
(g13
S'\x92\xc5\xb5\x81\xbc/\xe8?'
tRp1430
g11
(g13
S'\x00\x00\x00\x00\x00\x00\x00@'
tRp1431
tp1432
a(S'breast_cancer'
(dp1433
S'n_forests'
p1434
I100
sS'n_jobs'
p1435
I-1
sS'weight_extent'
p1436
I0
sS'n_trees'
p1437
I1
sS'k'
I2
sS'n_features_to_predict'
p1438
F0.29999999999999999
sS'kmeans_type'
p1439
S'normal'
p1440
sS'max_depth'
p1441
I5
sg11
(g13
S'v\x85a\xbe+\xa6\xe5?'
tRp1442
g11
(g13
S'\x00\x00\x00\x00\x00\x00\x00@'
tRp1443
tp1444
a(S'boston'
(dp1445
S'n_forests'
p1446
I100
sS'n_jobs'
p1447
I-1
sS'weight_extent'
p1448
I0
sS'n_trees'
p1449
I1
sS'k'
I2
sS'n_features_to_predict'
p1450
F0.5
sS'kmeans_type'
p1451
S'squishy'
p1452
sS'max_depth'
p1453
I5
sg11
(g13
S'.\x16t\x94.\\\xe6?'
tRp1454
g11
(g13
S'\x00\x00\x00\x00\x00\x00\x00@'
tRp1455
tp1456
a(S'boston'
(dp1457
S'n_forests'
p1458
I100
sS'n_jobs'
p1459
I-1
sS'weight_extent'
p1460
I0
sS'n_trees'
p1461
I1
sS'k'
I2
sS'n_features_to_predict'
p1462
F0.5
sS'kmeans_type'
p1463
S'normal'
p1464
sS'max_depth'
p1465
I5
sg11
(g13
S'\xc0o\xd4\x8aRL\xea?'
tRp1466
g11
(g13
S'\x00\x00\x00\x00\x00\x00\x00@'
tRp1467
tp1468
a(S'diabetes'
(dp1469
S'n_forests'
p1470
I100
sS'n_jobs'
p1471
I-1
sS'weight_extent'
p1472
I0
sS'n_trees'
p1473
I1
sS'k'
I2
sS'n_features_to_predict'
p1474
F0.5
sS'kmeans_type'
p1475
S'squishy'
p1476
sS'max_depth'
p1477
I5
sg11
(g13
S'\x9e\xe67\x15\xd1\x0c\xe8?'
tRp1478
g11
(g13
S'\x00\x00\x00\x00\x00\x00\x00@'
tRp1479
tp1480
a(S'diabetes'
(dp1481
S'n_forests'
p1482
I100
sS'n_jobs'
p1483
I-1
sS'weight_extent'
p1484
I0
sS'n_trees'
p1485
I1
sS'k'
I2
sS'n_features_to_predict'
p1486
F0.5
sS'kmeans_type'
p1487
S'normal'
p1488
sS'max_depth'
p1489
I5
sg11
(g13
S'\xe0\xb2\xe1\xd1\x9c\x86\xe8?'
tRp1490
g11
(g13
S'\x00\x00\x00\x00\x00\x00\x00@'
tRp1491
tp1492
a(S'iris'
(dp1493
S'n_forests'
p1494
I100
sS'n_jobs'
p1495
I-1
sS'weight_extent'
p1496
I0
sS'n_trees'
p1497
I1
sS'k'
I2
sS'n_features_to_predict'
p1498
F0.5
sS'kmeans_type'
p1499
S'squishy'
p1500
sS'max_depth'
p1501
I5
sg11
(g13
S'\x8b\xea\x07\xb4R\x10\xe6?'
tRp1502
g11
(g13
S'\x00\x00\x00\x00\x00\x00\x00@'
tRp1503
tp1504
a(S'iris'
(dp1505
S'n_forests'
p1506
I100
sS'n_jobs'
p1507
I-1
sS'weight_extent'
p1508
I0
sS'n_trees'
p1509
I1
sS'k'
I2
sS'n_features_to_predict'
p1510
F0.5
sS'kmeans_type'
p1511
S'normal'
p1512
sS'max_depth'
p1513
I5
sg11
(g13
S'\n\xcfP\xc9\x9b4\xea?'
tRp1514
g11
(g13
S'\x00\x00\x00\x00\x00\x00\x00@'
tRp1515
tp1516
a(S'breast_cancer'
(dp1517
S'n_forests'
p1518
I100
sS'n_jobs'
p1519
I-1
sS'weight_extent'
p1520
I0
sS'n_trees'
p1521
I1
sS'k'
I2
sS'n_features_to_predict'
p1522
F0.5
sS'kmeans_type'
p1523
S'squishy'
p1524
sS'max_depth'
p1525
I5
sg11
(g13
S'\xfez\x93\xa7\x06\x18\xe8?'
tRp1526
g11
(g13
S'\x00\x00\x00\x00\x00\x00\x00@'
tRp1527
tp1528
a(S'breast_cancer'
(dp1529
S'n_forests'
p1530
I100
sS'n_jobs'
p1531
I-1
sS'weight_extent'
p1532
I0
sS'n_trees'
p1533
I1
sS'k'
I2
sS'n_features_to_predict'
p1534
F0.5
sS'kmeans_type'
p1535
S'normal'
p1536
sS'max_depth'
p1537
I5
sg11
(g13
S'~;\x97\xac<\xc2\xe6?'
tRp1538
g11
(g13
S'\x00\x00\x00\x00\x00\x00\x00@'
tRp1539
tp1540
a(S'boston'
(dp1541
S'n_forests'
p1542
I100
sS'n_jobs'
p1543
I-1
sS'weight_extent'
p1544
I0
sS'n_trees'
p1545
I1
sS'k'
I3
sS'n_features_to_predict'
p1546
F0.29999999999999999
sS'kmeans_type'
p1547
S'squishy'
p1548
sS'max_depth'
p1549
I5
sg11
(g13
S'\xad]\x1f\x95\x13\xce\xe2?'
tRp1550
g11
(g13
S'\x00\x00\x00\x00\x00\x00\x08@'
tRp1551
tp1552
a(S'boston'
(dp1553
S'n_forests'
p1554
I100
sS'n_jobs'
p1555
I-1
sS'weight_extent'
p1556
I0
sS'n_trees'
p1557
I1
sS'k'
I3
sS'n_features_to_predict'
p1558
F0.29999999999999999
sS'kmeans_type'
p1559
S'normal'
p1560
sS'max_depth'
p1561
I5
sg11
(g13
S'\xa0a\xc1\x91u\xda\xe3?'
tRp1562
g11
(g13
S'\x00\x00\x00\x00\x00\x00\x08@'
tRp1563
tp1564
a(S'diabetes'
(dp1565
S'n_forests'
p1566
I100
sS'n_jobs'
p1567
I-1
sS'weight_extent'
p1568
I0
sS'n_trees'
p1569
I1
sS'k'
I3
sS'n_features_to_predict'
p1570
F0.29999999999999999
sS'kmeans_type'
p1571
S'squishy'
p1572
sS'max_depth'
p1573
I5
sg11
(g13
S'\xe6\x03DKVz\xe6?'
tRp1574
g11
(g13
S'\x00\x00\x00\x00\x00\x00\x08@'
tRp1575
tp1576
a(S'diabetes'
(dp1577
S'n_forests'
p1578
I100
sS'n_jobs'
p1579
I-1
sS'weight_extent'
p1580
I0
sS'n_trees'
p1581
I1
sS'k'
I3
sS'n_features_to_predict'
p1582
F0.29999999999999999
sS'kmeans_type'
p1583
S'normal'
p1584
sS'max_depth'
p1585
I5
sg11
(g13
S'\r/\x96Xcx\xe6?'
tRp1586
g11
(g13
S'\x00\x00\x00\x00\x00\x00\x08@'
tRp1587
tp1588
a(S'iris'
(dp1589
S'n_forests'
p1590
I100
sS'n_jobs'
p1591
I-1
sS'weight_extent'
p1592
I0
sS'n_trees'
p1593
I1
sS'k'
I3
sS'n_features_to_predict'
p1594
F0.29999999999999999
sS'kmeans_type'
p1595
S'squishy'
p1596
sS'max_depth'
p1597
I5
sg11
(g13
S'\x1ct\xf1\x94\xc9\x08\xe6?'
tRp1598
g11
(g13
S'\x00\x00\x00\x00\x00\x00\x08@'
tRp1599
tp1600
a(S'iris'
(dp1601
S'n_forests'
p1602
I100
sS'n_jobs'
p1603
I-1
sS'weight_extent'
p1604
I0
sS'n_trees'
p1605
I1
sS'k'
I3
sS'n_features_to_predict'
p1606
F0.29999999999999999
sS'kmeans_type'
p1607
S'normal'
p1608
sS'max_depth'
p1609
I5
sg11
(g13
S'\xaa7P\x89\xccb\xe3?'
tRp1610
g11
(g13
S'\x00\x00\x00\x00\x00\x00\x08@'
tRp1611
tp1612
a(S'breast_cancer'
(dp1613
S'n_forests'
p1614
I100
sS'n_jobs'
p1615
I-1
sS'weight_extent'
p1616
I0
sS'n_trees'
p1617
I1
sS'k'
I3
sS'n_features_to_predict'
p1618
F0.29999999999999999
sS'kmeans_type'
p1619
S'squishy'
p1620
sS'max_depth'
p1621
I5
sg11
(g13
S'\x0c\x86\xcc%\x81\x9c\xe3?'
tRp1622
g11
(g13
S'\x00\x00\x00\x00\x00\x00\x08@'
tRp1623
tp1624
a(S'breast_cancer'
(dp1625
S'n_forests'
p1626
I100
sS'n_jobs'
p1627
I-1
sS'weight_extent'
p1628
I0
sS'n_trees'
p1629
I1
sS'k'
I3
sS'n_features_to_predict'
p1630
F0.29999999999999999
sS'kmeans_type'
p1631
S'normal'
p1632
sS'max_depth'
p1633
I5
sg11
(g13
S'H\x7f\xe0\xc7\x19\x13\xe7?'
tRp1634
g11
(g13
S'\x00\x00\x00\x00\x00\x00\x08@'
tRp1635
tp1636
a(S'boston'
(dp1637
S'n_forests'
p1638
I100
sS'n_jobs'
p1639
I-1
sS'weight_extent'
p1640
I0
sS'n_trees'
p1641
I1
sS'k'
I3
sS'n_features_to_predict'
p1642
F0.5
sS'kmeans_type'
p1643
S'squishy'
p1644
sS'max_depth'
p1645
I5
sg11
(g13
S',\x9a\x9a\xc5\xe7\xc4\xe3?'
tRp1646
g11
(g13
S'\x00\x00\x00\x00\x00\x00\x08@'
tRp1647
tp1648
a(S'boston'
(dp1649
S'n_forests'
p1650
I100
sS'n_jobs'
p1651
I-1
sS'weight_extent'
p1652
I0
sS'n_trees'
p1653
I1
sS'k'
I3
sS'n_features_to_predict'
p1654
F0.5
sS'kmeans_type'
p1655
S'normal'
p1656
sS'max_depth'
p1657
I5
sg11
(g13
S'i\x12\xd7\xe7\xa7;\xe1?'
tRp1658
g11
(g13
S'\x00\x00\x00\x00\x00\x00\x08@'
tRp1659
tp1660
a(S'diabetes'
(dp1661
S'n_forests'
p1662
I100
sS'n_jobs'
p1663
I-1
sS'weight_extent'
p1664
I0
sS'n_trees'
p1665
I1
sS'k'
I3
sS'n_features_to_predict'
p1666
F0.5
sS'kmeans_type'
p1667
S'squishy'
p1668
sS'max_depth'
p1669
I5
sg11
(g13
S'\x02\x14b0>\xad\xe6?'
tRp1670
g11
(g13
S'\x00\x00\x00\x00\x00\x00\x08@'
tRp1671
tp1672
a(S'diabetes'
(dp1673
S'n_forests'
p1674
I100
sS'n_jobs'
p1675
I-1
sS'weight_extent'
p1676
I0
sS'n_trees'
p1677
I1
sS'k'
I3
sS'n_features_to_predict'
p1678
F0.5
sS'kmeans_type'
p1679
S'normal'
p1680
sS'max_depth'
p1681
I5
sg11
(g13
S'\n\n\xdf\xef)y\xe6?'
tRp1682
g11
(g13
S'\x00\x00\x00\x00\x00\x00\x08@'
tRp1683
tp1684
a(S'iris'
(dp1685
S'n_forests'
p1686
I100
sS'n_jobs'
p1687
I-1
sS'weight_extent'
p1688
I0
sS'n_trees'
p1689
I1
sS'k'
I3
sS'n_features_to_predict'
p1690
F0.5
sS'kmeans_type'
p1691
S'squishy'
p1692
sS'max_depth'
p1693
I5
sg11
(g13
S'\x13H=C\xff*\xe6?'
tRp1694
g11
(g13
S'\x00\x00\x00\x00\x00\x00\x08@'
tRp1695
tp1696
a(S'iris'
(dp1697
S'n_forests'
p1698
I100
sS'n_jobs'
p1699
I-1
sS'weight_extent'
p1700
I0
sS'n_trees'
p1701
I1
sS'k'
I3
sS'n_features_to_predict'
p1702
F0.5
sS'kmeans_type'
p1703
S'normal'
p1704
sS'max_depth'
p1705
I5
sg11
(g13
S'}`\xeci\xa6r\xe7?'
tRp1706
g11
(g13
S'\x00\x00\x00\x00\x00\x00\x08@'
tRp1707
tp1708
a(S'breast_cancer'
(dp1709
S'n_forests'
p1710
I100
sS'n_jobs'
p1711
I-1
sS'weight_extent'
p1712
I0
sS'n_trees'
p1713
I1
sS'k'
I3
sS'n_features_to_predict'
p1714
F0.5
sS'kmeans_type'
p1715
S'squishy'
p1716
sS'max_depth'
p1717
I5
sg11
(g13
S'4\x1e{\xbb\t3\xe6?'
tRp1718
g11
(g13
S'\x00\x00\x00\x00\x00\x00\x08@'
tRp1719
tp1720
a(S'breast_cancer'
(dp1721
S'n_forests'
p1722
I100
sS'n_jobs'
p1723
I-1
sS'weight_extent'
p1724
I0
sS'n_trees'
p1725
I1
sS'k'
I3
sS'n_features_to_predict'
p1726
F0.5
sS'kmeans_type'
p1727
S'normal'
p1728
sS'max_depth'
p1729
I5
sg11
(g13
S'\xb5\x8f\x04\xf5d\xdb\xe3?'
tRp1730
g11
(g13
S'\x00\x00\x00\x00\x00\x00\x08@'
tRp1731
tp1732
a(S'boston'
(dp1733
S'n_forests'
p1734
I100
sS'n_jobs'
p1735
I-1
sS'weight_extent'
p1736
I0
sS'n_trees'
p1737
I1
sS'k'
I4
sS'n_features_to_predict'
p1738
F0.29999999999999999
sS'kmeans_type'
p1739
S'squishy'
p1740
sS'max_depth'
p1741
I5
sg11
(g13
S'\x06\x11@Q\x88\xeb\xe0?'
tRp1742
g11
(g13
S'\x00\x00\x00\x00\x00\x00\x10@'
tRp1743
tp1744
a(S'boston'
(dp1745
S'n_forests'
p1746
I100
sS'n_jobs'
p1747
I-1
sS'weight_extent'
p1748
I0
sS'n_trees'
p1749
I1
sS'k'
I4
sS'n_features_to_predict'
p1750
F0.29999999999999999
sS'kmeans_type'
p1751
S'normal'
p1752
sS'max_depth'
p1753
I5
sg11
(g13
S'\x008\xcf\xc7M%\xdd?'
tRp1754
g11
(g13
S'\x00\x00\x00\x00\x00\x00\x10@'
tRp1755
tp1756
a(S'diabetes'
(dp1757
S'n_forests'
p1758
I100
sS'n_jobs'
p1759
I-1
sS'weight_extent'
p1760
I0
sS'n_trees'
p1761
I1
sS'k'
I4
sS'n_features_to_predict'
p1762
F0.29999999999999999
sS'kmeans_type'
p1763
S'squishy'
p1764
sS'max_depth'
p1765
I5
sg11
(g13
S'uM\xff\x0e};\xe5?'
tRp1766
g11
(g13
S'\x00\x00\x00\x00\x00\x00\x10@'
tRp1767
tp1768
a(S'diabetes'
(dp1769
S'n_forests'
p1770
I100
sS'n_jobs'
p1771
I-1
sS'weight_extent'
p1772
I0
sS'n_trees'
p1773
I1
sS'k'
I4
sS'n_features_to_predict'
p1774
F0.29999999999999999
sS'kmeans_type'
p1775
S'normal'
p1776
sS'max_depth'
p1777
I5
sg11
(g13
S'Q\xf2\xc9R&\xd6\xe5?'
tRp1778
g11
(g13
S'\x00\x00\x00\x00\x00\x00\x10@'
tRp1779
tp1780
a(S'iris'
(dp1781
S'n_forests'
p1782
I100
sS'n_jobs'
p1783
I-1
sS'weight_extent'
p1784
I0
sS'n_trees'
p1785
I1
sS'k'
I4
sS'n_features_to_predict'
p1786
F0.29999999999999999
sS'kmeans_type'
p1787
S'squishy'
p1788
sS'max_depth'
p1789
I5
sg11
(g13
S"\x83'\xc9\x07\xdf\n\xe0?"
tRp1790
g11
(g13
S'\x00\x00\x00\x00\x00\x00\x10@'
tRp1791
tp1792
a(S'iris'
(dp1793
S'n_forests'
p1794
I100
sS'n_jobs'
p1795
I-1
sS'weight_extent'
p1796
I0
sS'n_trees'
p1797
I1
sS'k'
I4
sS'n_features_to_predict'
p1798
F0.29999999999999999
sS'kmeans_type'
p1799
S'normal'
p1800
sS'max_depth'
p1801
I5
sg11
(g13
S'\x00\x87\xe2\xd9\x9ag\xe4?'
tRp1802
g11
(g13
S'\x00\x00\x00\x00\x00\x00\x10@'
tRp1803
tp1804
a(S'breast_cancer'
(dp1805
S'n_forests'
p1806
I100
sS'n_jobs'
p1807
I-1
sS'weight_extent'
p1808
I0
sS'n_trees'
p1809
I1
sS'k'
I4
sS'n_features_to_predict'
p1810
F0.29999999999999999
sS'kmeans_type'
p1811
S'squishy'
p1812
sS'max_depth'
p1813
I5
sg11
(g13
S'\x9b?w\xaf\xd0\x11\xe4?'
tRp1814
g11
(g13
S'\x00\x00\x00\x00\x00\x00\x10@'
tRp1815
tp1816
a(S'breast_cancer'
(dp1817
S'n_forests'
p1818
I100
sS'n_jobs'
p1819
I-1
sS'weight_extent'
p1820
I0
sS'n_trees'
p1821
I1
sS'k'
I4
sS'n_features_to_predict'
p1822
F0.29999999999999999
sS'kmeans_type'
p1823
S'normal'
p1824
sS'max_depth'
p1825
I5
sg11
(g13
S'%\xa6\x86\x16\x87\xb5\xe3?'
tRp1826
g11
(g13
S'\x00\x00\x00\x00\x00\x00\x10@'
tRp1827
tp1828
a(S'boston'
(dp1829
S'n_forests'
p1830
I100
sS'n_jobs'
p1831
I-1
sS'weight_extent'
p1832
I0
sS'n_trees'
p1833
I1
sS'k'
I4
sS'n_features_to_predict'
p1834
F0.5
sS'kmeans_type'
p1835
S'squishy'
p1836
sS'max_depth'
p1837
I5
sg11
(g13
S'\x90\xb6W\x9a\x9e\xd3\xe0?'
tRp1838
g11
(g13
S'\x00\x00\x00\x00\x00\x00\x10@'
tRp1839
tp1840
a(S'boston'
(dp1841
S'n_forests'
p1842
I100
sS'n_jobs'
p1843
I-1
sS'weight_extent'
p1844
I0
sS'n_trees'
p1845
I1
sS'k'
I4
sS'n_features_to_predict'
p1846
F0.5
sS'kmeans_type'
p1847
S'normal'
p1848
sS'max_depth'
p1849
I5
sg11
(g13
S'U\x95\xe5\xb7\xa6r\xdd?'
tRp1850
g11
(g13
S'\x00\x00\x00\x00\x00\x00\x10@'
tRp1851
tp1852
a(S'diabetes'
(dp1853
S'n_forests'
p1854
I100
sS'n_jobs'
p1855
I-1
sS'weight_extent'
p1856
I0
sS'n_trees'
p1857
I1
sS'k'
I4
sS'n_features_to_predict'
p1858
F0.5
sS'kmeans_type'
p1859
S'squishy'
p1860
sS'max_depth'
p1861
I5
sg11
(g13
S'\x8d\x9a5#\x99\xc6\xe5?'
tRp1862
g11
(g13
S'\x00\x00\x00\x00\x00\x00\x10@'
tRp1863
tp1864
a(S'diabetes'
(dp1865
S'n_forests'
p1866
I100
sS'n_jobs'
p1867
I-1
sS'weight_extent'
p1868
I0
sS'n_trees'
p1869
I1
sS'k'
I4
sS'n_features_to_predict'
p1870
F0.5
sS'kmeans_type'
p1871
S'normal'
p1872
sS'max_depth'
p1873
I5
sg11
(g13
S'\xf7\x0b\x94\x11\\H\xe5?'
tRp1874
g11
(g13
S'\x00\x00\x00\x00\x00\x00\x10@'
tRp1875
tp1876
a(S'iris'
(dp1877
S'n_forests'
p1878
I100
sS'n_jobs'
p1879
I-1
sS'weight_extent'
p1880
I0
sS'n_trees'
p1881
I1
sS'k'
I4
sS'n_features_to_predict'
p1882
F0.5
sS'kmeans_type'
p1883
S'squishy'
p1884
sS'max_depth'
p1885
I5
sg11
(g13
S'\xc4\xc0\x06\xc6)\xac\xe4?'
tRp1886
g11
(g13
S'\x00\x00\x00\x00\x00\x00\x10@'
tRp1887
tp1888
a(S'iris'
(dp1889
S'n_forests'
p1890
I100
sS'n_jobs'
p1891
I-1
sS'weight_extent'
p1892
I0
sS'n_trees'
p1893
I1
sS'k'
I4
sS'n_features_to_predict'
p1894
F0.5
sS'kmeans_type'
p1895
S'normal'
p1896
sS'max_depth'
p1897
I5
sg11
(g13
S'\x95\xb7\x1dI\xb1\x06\xe5?'
tRp1898
g11
(g13
S'\x00\x00\x00\x00\x00\x00\x10@'
tRp1899
tp1900
a(S'breast_cancer'
(dp1901
S'n_forests'
p1902
I100
sS'n_jobs'
p1903
I-1
sS'weight_extent'
p1904
I0
sS'n_trees'
p1905
I1
sS'k'
I4
sS'n_features_to_predict'
p1906
F0.5
sS'kmeans_type'
p1907
S'squishy'
p1908
sS'max_depth'
p1909
I5
sg11
(g13
S'\xfb\x0f\xf7U\xe0\x87\xe5?'
tRp1910
g11
(g13
S'\x00\x00\x00\x00\x00\x00\x10@'
tRp1911
tp1912
a(S'breast_cancer'
(dp1913
S'n_forests'
p1914
I100
sS'n_jobs'
p1915
I-1
sS'weight_extent'
p1916
I0
sS'n_trees'
p1917
I1
sS'k'
I4
sS'n_features_to_predict'
p1918
F0.5
sS'kmeans_type'
p1919
S'normal'
p1920
sS'max_depth'
p1921
I5
sg11
(g13
S'KY\x8fW\xfaU\xdc?'
tRp1922
g11
(g13
S'\x00\x00\x00\x00\x00\x00\x10@'
tRp1923
tp1924
a(S'boston'
(dp1925
S'n_forests'
p1926
I100
sS'n_jobs'
p1927
I-1
sS'weight_extent'
p1928
I0
sS'n_trees'
p1929
I1
sS'k'
I5
sS'n_features_to_predict'
p1930
F0.29999999999999999
sS'kmeans_type'
p1931
S'squishy'
p1932
sS'max_depth'
p1933
I5
sg11
(g13
S'm\xf1*M\x08\x8e\xe1?'
tRp1934
g11
(g13
S'\x00\x00\x00\x00\x00\x00\x14@'
tRp1935
tp1936
a(S'boston'
(dp1937
S'n_forests'
p1938
I100
sS'n_jobs'
p1939
I-1
sS'weight_extent'
p1940
I0
sS'n_trees'
p1941
I1
sS'k'
I5
sS'n_features_to_predict'
p1942
F0.29999999999999999
sS'kmeans_type'
p1943
S'normal'
p1944
sS'max_depth'
p1945
I5
sg11
(g13
S'}6n@\x8e9\xe0?'
tRp1946
g11
(g13
S'\x00\x00\x00\x00\x00\x00\x14@'
tRp1947
tp1948
a(S'diabetes'
(dp1949
S'n_forests'
p1950
I100
sS'n_jobs'
p1951
I-1
sS'weight_extent'
p1952
I0
sS'n_trees'
p1953
I1
sS'k'
I5
sS'n_features_to_predict'
p1954
F0.29999999999999999
sS'kmeans_type'
p1955
S'squishy'
p1956
sS'max_depth'
p1957
I5
sg11
(g13
S'{\x97\xbc\xe8\xb2\xb4\xe4?'
tRp1958
g11
(g13
S'\x00\x00\x00\x00\x00\x00\x14@'
tRp1959
tp1960
a(S'diabetes'
(dp1961
S'n_forests'
p1962
I100
sS'n_jobs'
p1963
I-1
sS'weight_extent'
p1964
I0
sS'n_trees'
p1965
I1
sS'k'
I5
sS'n_features_to_predict'
p1966
F0.29999999999999999
sS'kmeans_type'
p1967
S'normal'
p1968
sS'max_depth'
p1969
I5
sg11
(g13
S'\xcbCU&z9\xe5?'
tRp1970
g11
(g13
S'\x00\x00\x00\x00\x00\x00\x14@'
tRp1971
tp1972
a(S'iris'
(dp1973
S'n_forests'
p1974
I100
sS'n_jobs'
p1975
I-1
sS'weight_extent'
p1976
I0
sS'n_trees'
p1977
I1
sS'k'
I5
sS'n_features_to_predict'
p1978
F0.29999999999999999
sS'kmeans_type'
p1979
S'squishy'
p1980
sS'max_depth'
p1981
I5
sg11
(g13
S'\xeb5\x80))\x90\xe6?'
tRp1982
g11
(g13
S'\x00\x00\x00\x00\x00\x00\x14@'
tRp1983
tp1984
a(S'iris'
(dp1985
S'n_forests'
p1986
I100
sS'n_jobs'
p1987
I-1
sS'weight_extent'
p1988
I0
sS'n_trees'
p1989
I1
sS'k'
I5
sS'n_features_to_predict'
p1990
F0.29999999999999999
sS'kmeans_type'
p1991
S'normal'
p1992
sS'max_depth'
p1993
I5
sg11
(g13
S'\xa2Mu\xb7\x9e\xdf\xe5?'
tRp1994
g11
(g13
S'\x00\x00\x00\x00\x00\x00\x14@'
tRp1995
tp1996
a(S'breast_cancer'
(dp1997
S'n_forests'
p1998
I100
sS'n_jobs'
p1999
I-1
sS'weight_extent'
p2000
I0
sS'n_trees'
p2001
I1
sS'k'
I5
sS'n_features_to_predict'
p2002
F0.29999999999999999
sS'kmeans_type'
p2003
S'squishy'
p2004
sS'max_depth'
p2005
I5
sg11
(g13
S'\x84O\x0b\xe8\xbaH\xe1?'
tRp2006
g11
(g13
S'\x00\x00\x00\x00\x00\x00\x14@'
tRp2007
tp2008
a(S'breast_cancer'
(dp2009
S'n_forests'
p2010
I100
sS'n_jobs'
p2011
I-1
sS'weight_extent'
p2012
I0
sS'n_trees'
p2013
I1
sS'k'
I5
sS'n_features_to_predict'
p2014
F0.29999999999999999
sS'kmeans_type'
p2015
S'normal'
p2016
sS'max_depth'
p2017
I5
sg11
(g13
S'ey\xb4m\x1c\xf2\xe2?'
tRp2018
g11
(g13
S'\x00\x00\x00\x00\x00\x00\x14@'
tRp2019
tp2020
a(S'boston'
(dp2021
S'n_forests'
p2022
I100
sS'n_jobs'
p2023
I-1
sS'weight_extent'
p2024
I0
sS'n_trees'
p2025
I1
sS'k'
I5
sS'n_features_to_predict'
p2026
F0.5
sS'kmeans_type'
p2027
S'squishy'
p2028
sS'max_depth'
p2029
I5
sg11
(g13
S'\xb8\xf7\xc3\xa3\xad\xe8\xdf?'
tRp2030
g11
(g13
S'\x00\x00\x00\x00\x00\x00\x14@'
tRp2031
tp2032
a(S'boston'
(dp2033
S'n_forests'
p2034
I100
sS'n_jobs'
p2035
I-1
sS'weight_extent'
p2036
I0
sS'n_trees'
p2037
I1
sS'k'
I5
sS'n_features_to_predict'
p2038
F0.5
sS'kmeans_type'
p2039
S'normal'
p2040
sS'max_depth'
p2041
I5
sg11
(g13
S'\xf6\x84#\x02\x91\x15\xe2?'
tRp2042
g11
(g13
S'\x00\x00\x00\x00\x00\x00\x14@'
tRp2043
tp2044
a(S'diabetes'
(dp2045
S'n_forests'
p2046
I100
sS'n_jobs'
p2047
I-1
sS'weight_extent'
p2048
I0
sS'n_trees'
p2049
I1
sS'k'
I5
sS'n_features_to_predict'
p2050
F0.5
sS'kmeans_type'
p2051
S'squishy'
p2052
sS'max_depth'
p2053
I5
sg11
(g13
S'\x81\xc1\x13\xbe\xa3J\xe4?'
tRp2054
g11
(g13
S'\x00\x00\x00\x00\x00\x00\x14@'
tRp2055
tp2056
a(S'diabetes'
(dp2057
S'n_forests'
p2058
I100
sS'n_jobs'
p2059
I-1
sS'weight_extent'
p2060
I0
sS'n_trees'
p2061
I1
sS'k'
I5
sS'n_features_to_predict'
p2062
F0.5
sS'kmeans_type'
p2063
S'normal'
p2064
sS'max_depth'
p2065
I5
sg11
(g13
S'\xb0u\xbe\x0e\xaaX\xe4?'
tRp2066
g11
(g13
S'\x00\x00\x00\x00\x00\x00\x14@'
tRp2067
tp2068
a(S'iris'
(dp2069
S'n_forests'
p2070
I100
sS'n_jobs'
p2071
I-1
sS'weight_extent'
p2072
I0
sS'n_trees'
p2073
I1
sS'k'
I5
sS'n_features_to_predict'
p2074
F0.5
sS'kmeans_type'
p2075
S'squishy'
p2076
sS'max_depth'
p2077
I5
sg11
(g13
S'\xca\x00\x98\xd9 \xc4\xe2?'
tRp2078
g11
(g13
S'\x00\x00\x00\x00\x00\x00\x14@'
tRp2079
tp2080
a(S'iris'
(dp2081
S'n_forests'
p2082
I100
sS'n_jobs'
p2083
I-1
sS'weight_extent'
p2084
I0
sS'n_trees'
p2085
I1
sS'k'
I5
sS'n_features_to_predict'
p2086
F0.5
sS'kmeans_type'
p2087
S'normal'
p2088
sS'max_depth'
p2089
I5
sg11
(g13
S'Z\xac\xf2N*8\xe2?'
tRp2090
g11
(g13
S'\x00\x00\x00\x00\x00\x00\x14@'
tRp2091
tp2092
a(S'breast_cancer'
(dp2093
S'n_forests'
p2094
I100
sS'n_jobs'
p2095
I-1
sS'weight_extent'
p2096
I0
sS'n_trees'
p2097
I1
sS'k'
I5
sS'n_features_to_predict'
p2098
F0.5
sS'kmeans_type'
p2099
S'squishy'
p2100
sS'max_depth'
p2101
I5
sg11
(g13
S'\xb0\x0c\x9e\xb4\xf9|\xe0?'
tRp2102
g11
(g13
S'\x00\x00\x00\x00\x00\x00\x14@'
tRp2103
tp2104
a(S'breast_cancer'
(dp2105
S'n_forests'
p2106
I100
sS'n_jobs'
p2107
I-1
sS'weight_extent'
p2108
I0
sS'n_trees'
p2109
I1
sS'k'
I5
sS'n_features_to_predict'
p2110
F0.5
sS'kmeans_type'
p2111
S'normal'
p2112
sS'max_depth'
p2113
I5
sg11
(g13
S'\xe6\x82bGC\xe8\xe0?'
tRp2114
g11
(g13
S'\x00\x00\x00\x00\x00\x00\x14@'
tRp2115
tp2116
a(S'boston'
(dp2117
S'n_forests'
p2118
I100
sS'n_jobs'
p2119
I-1
sS'weight_extent'
p2120
I0
sS'n_trees'
p2121
I1
sS'k'
I6
sS'n_features_to_predict'
p2122
F0.29999999999999999
sS'kmeans_type'
p2123
S'squishy'
p2124
sS'max_depth'
p2125
I5
sg11
(g13
S'%\xb3\n\xd6\x12\xa1\xe0?'
tRp2126
g11
(g13
S'\x00\x00\x00\x00\x00\x00\x18@'
tRp2127
tp2128
a(S'boston'
(dp2129
S'n_forests'
p2130
I100
sS'n_jobs'
p2131
I-1
sS'weight_extent'
p2132
I0
sS'n_trees'
p2133
I1
sS'k'
I6
sS'n_features_to_predict'
p2134
F0.29999999999999999
sS'kmeans_type'
p2135
S'normal'
p2136
sS'max_depth'
p2137
I5
sg11
(g13
S'S\x0e\xe9x\x93\xbf\xe0?'
tRp2138
g11
(g13
S'\x00\x00\x00\x00\x00\x00\x18@'
tRp2139
tp2140
a(S'diabetes'
(dp2141
S'n_forests'
p2142
I100
sS'n_jobs'
p2143
I-1
sS'weight_extent'
p2144
I0
sS'n_trees'
p2145
I1
sS'k'
I6
sS'n_features_to_predict'
p2146
F0.29999999999999999
sS'kmeans_type'
p2147
S'squishy'
p2148
sS'max_depth'
p2149
I5
sg11
(g13
S'\x10\xe8\x0cT\xbdI\xe4?'
tRp2150
g11
(g13
S'\x00\x00\x00\x00\x00\x00\x18@'
tRp2151
tp2152
a(S'diabetes'
(dp2153
S'n_forests'
p2154
I100
sS'n_jobs'
p2155
I-1
sS'weight_extent'
p2156
I0
sS'n_trees'
p2157
I1
sS'k'
I6
sS'n_features_to_predict'
p2158
F0.29999999999999999
sS'kmeans_type'
p2159
S'normal'
p2160
sS'max_depth'
p2161
I5
sg11
(g13
S'\xa1\xf5\xee;\x9fB\xe3?'
tRp2162
g11
(g13
S'\x00\x00\x00\x00\x00\x00\x18@'
tRp2163
tp2164
a(S'iris'
(dp2165
S'n_forests'
p2166
I100
sS'n_jobs'
p2167
I-1
sS'weight_extent'
p2168
I0
sS'n_trees'
p2169
I1
sS'k'
I6
sS'n_features_to_predict'
p2170
F0.29999999999999999
sS'kmeans_type'
p2171
S'squishy'
p2172
sS'max_depth'
p2173
I5
sg11
(g13
S']\x18m]\xdd \xe4?'
tRp2174
g11
(g13
S'\x00\x00\x00\x00\x00\x00\x18@'
tRp2175
tp2176
a(S'iris'
(dp2177
S'n_forests'
p2178
I100
sS'n_jobs'
p2179
I-1
sS'weight_extent'
p2180
I0
sS'n_trees'
p2181
I1
sS'k'
I6
sS'n_features_to_predict'
p2182
F0.29999999999999999
sS'kmeans_type'
p2183
S'normal'
p2184
sS'max_depth'
p2185
I5
sg11
(g13
S'\xe7&=\xb1\x03\xad\xe4?'
tRp2186
g11
(g13
S'\x00\x00\x00\x00\x00\x00\x18@'
tRp2187
tp2188
a(S'breast_cancer'
(dp2189
S'n_forests'
p2190
I100
sS'n_jobs'
p2191
I-1
sS'weight_extent'
p2192
I0
sS'n_trees'
p2193
I1
sS'k'
I6
sS'n_features_to_predict'
p2194
F0.29999999999999999
sS'kmeans_type'
p2195
S'squishy'
p2196
sS'max_depth'
p2197
I5
sg11
(g13
S'\xa3\x00r\xe2_S\xe4?'
tRp2198
g11
(g13
S'\x00\x00\x00\x00\x00\x00\x18@'
tRp2199
tp2200
a(S'breast_cancer'
(dp2201
S'n_forests'
p2202
I100
sS'n_jobs'
p2203
I-1
sS'weight_extent'
p2204
I0
sS'n_trees'
p2205
I1
sS'k'
I6
sS'n_features_to_predict'
p2206
F0.29999999999999999
sS'kmeans_type'
p2207
S'normal'
p2208
sS'max_depth'
p2209
I5
sg11
(g13
S'\x04b;C\xd2\x08\xe3?'
tRp2210
g11
(g13
S'\x00\x00\x00\x00\x00\x00\x18@'
tRp2211
tp2212
a(S'boston'
(dp2213
S'n_forests'
p2214
I100
sS'n_jobs'
p2215
I-1
sS'weight_extent'
p2216
I0
sS'n_trees'
p2217
I1
sS'k'
I6
sS'n_features_to_predict'
p2218
F0.5
sS'kmeans_type'
p2219
S'squishy'
p2220
sS'max_depth'
p2221
I5
sg11
(g13
S'*\x0ez\x03\xd7\xe6\xe0?'
tRp2222
g11
(g13
S'\x00\x00\x00\x00\x00\x00\x18@'
tRp2223
tp2224
a(S'boston'
(dp2225
S'n_forests'
p2226
I100
sS'n_jobs'
p2227
I-1
sS'weight_extent'
p2228
I0
sS'n_trees'
p2229
I1
sS'k'
I6
sS'n_features_to_predict'
p2230
F0.5
sS'kmeans_type'
p2231
S'normal'
p2232
sS'max_depth'
p2233
I5
sg11
(g13
S'\x8dk\x00\xea\x99!\xe0?'
tRp2234
g11
(g13
S'\x00\x00\x00\x00\x00\x00\x18@'
tRp2235
tp2236
a(S'diabetes'
(dp2237
S'n_forests'
p2238
I100
sS'n_jobs'
p2239
I-1
sS'weight_extent'
p2240
I0
sS'n_trees'
p2241
I1
sS'k'
I6
sS'n_features_to_predict'
p2242
F0.5
sS'kmeans_type'
p2243
S'squishy'
p2244
sS'max_depth'
p2245
I5
sg11
(g13
S'V/\xae\xfbuq\xe3?'
tRp2246
g11
(g13
S'\x00\x00\x00\x00\x00\x00\x18@'
tRp2247
tp2248
a(S'diabetes'
(dp2249
S'n_forests'
p2250
I100
sS'n_jobs'
p2251
I-1
sS'weight_extent'
p2252
I0
sS'n_trees'
p2253
I1
sS'k'
I6
sS'n_features_to_predict'
p2254
F0.5
sS'kmeans_type'
p2255
S'normal'
p2256
sS'max_depth'
p2257
I5
sg11
(g13
S'\xd8\xb22|\x15\x8b\xe3?'
tRp2258
g11
(g13
S'\x00\x00\x00\x00\x00\x00\x18@'
tRp2259
tp2260
a(S'iris'
(dp2261
S'n_forests'
p2262
I100
sS'n_jobs'
p2263
I-1
sS'weight_extent'
p2264
I0
sS'n_trees'
p2265
I1
sS'k'
I6
sS'n_features_to_predict'
p2266
F0.5
sS'kmeans_type'
p2267
S'squishy'
p2268
sS'max_depth'
p2269
I5
sg11
(g13
S"\xa3\x7fz'4\x18\xd5?"
tRp2270
g11
(g13
S'\x00\x00\x00\x00\x00\x00\x18@'
tRp2271
tp2272
a(S'iris'
(dp2273
S'n_forests'
p2274
I100
sS'n_jobs'
p2275
I-1
sS'weight_extent'
p2276
I0
sS'n_trees'
p2277
I1
sS'k'
I6
sS'n_features_to_predict'
p2278
F0.5
sS'kmeans_type'
p2279
S'normal'
p2280
sS'max_depth'
p2281
I5
sg11
(g13
S'\x061\xd4\x0c\x93h\xe5?'
tRp2282
g11
(g13
S'\x00\x00\x00\x00\x00\x00\x18@'
tRp2283
tp2284
a(S'breast_cancer'
(dp2285
S'n_forests'
p2286
I100
sS'n_jobs'
p2287
I-1
sS'weight_extent'
p2288
I0
sS'n_trees'
p2289
I1
sS'k'
I6
sS'n_features_to_predict'
p2290
F0.5
sS'kmeans_type'
p2291
S'squishy'
p2292
sS'max_depth'
p2293
I5
sg11
(g13
S'd\x06O\xa7\xaff\xe3?'
tRp2294
g11
(g13
S'\x00\x00\x00\x00\x00\x00\x18@'
tRp2295
tp2296
a(S'breast_cancer'
(dp2297
S'n_forests'
p2298
I100
sS'n_jobs'
p2299
I-1
sS'weight_extent'
p2300
I0
sS'n_trees'
p2301
I1
sS'k'
I6
sS'n_features_to_predict'
p2302
F0.5
sS'kmeans_type'
p2303
S'normal'
p2304
sS'max_depth'
p2305
I5
sg11
(g13
S'\xb9\xa0\xe6@B\xad\xe2?'
tRp2306
g11
(g13
S'\x00\x00\x00\x00\x00\x00\x18@'
tRp2307
tp2308
a(S'boston'
(dp2309
S'n_forests'
p2310
I100
sS'n_jobs'
p2311
I-1
sS'weight_extent'
p2312
I0
sS'n_trees'
p2313
I1
sS'k'
I8
sS'n_features_to_predict'
p2314
F0.29999999999999999
sS'kmeans_type'
p2315
S'squishy'
p2316
sS'max_depth'
p2317
I5
sg11
(g13
S'z\x10x\xb7\x83\xe7\xdc?'
tRp2318
g11
(g13
S'\x00\x00\x00\x00\x00\x00 @'
tRp2319
tp2320
a(S'boston'
(dp2321
S'n_forests'
p2322
I100
sS'n_jobs'
p2323
I-1
sS'weight_extent'
p2324
I0
sS'n_trees'
p2325
I1
sS'k'
I8
sS'n_features_to_predict'
p2326
F0.29999999999999999
sS'kmeans_type'
p2327
S'normal'
p2328
sS'max_depth'
p2329
I5
sg11
(g13
S'\x13\xe7\x84\xeem\xc1\xd9?'
tRp2330
g11
(g13
S'333333\x1f@'
tRp2331
tp2332
a(S'diabetes'
(dp2333
S'n_forests'
p2334
I100
sS'n_jobs'
p2335
I-1
sS'weight_extent'
p2336
I0
sS'n_trees'
p2337
I1
sS'k'
I8
sS'n_features_to_predict'
p2338
F0.29999999999999999
sS'kmeans_type'
p2339
S'squishy'
p2340
sS'max_depth'
p2341
I5
sg11
(g13
S'{\xa7\x1cg\x07\xbf\xe2?'
tRp2342
g11
(g13
S'\x00\x00\x00\x00\x00\x00 @'
tRp2343
tp2344
a(S'diabetes'
(dp2345
S'n_forests'
p2346
I100
sS'n_jobs'
p2347
I-1
sS'weight_extent'
p2348
I0
sS'n_trees'
p2349
I1
sS'k'
I8
sS'n_features_to_predict'
p2350
F0.29999999999999999
sS'kmeans_type'
p2351
S'normal'
p2352
sS'max_depth'
p2353
I5
sg11
(g13
S'k\x9dY\xacf\xc6\xe2?'
tRp2354
g11
(g13
S'\x00\x00\x00\x00\x00\x00 @'
tRp2355
tp2356
a(S'iris'
(dp2357
S'n_forests'
p2358
I100
sS'n_jobs'
p2359
I-1
sS'weight_extent'
p2360
I0
sS'n_trees'
p2361
I1
sS'k'
I8
sS'n_features_to_predict'
p2362
F0.29999999999999999
sS'kmeans_type'
p2363
S'squishy'
p2364
sS'max_depth'
p2365
I5
sg11
(g13
S'B3\x8e8\x9bf\xe5?'
tRp2366
g11
(g13
S'\x00\x00\x00\x00\x00\x00 @'
tRp2367
tp2368
a(S'iris'
(dp2369
S'n_forests'
p2370
I100
sS'n_jobs'
p2371
I-1
sS'weight_extent'
p2372
I0
sS'n_trees'
p2373
I1
sS'k'
I8
sS'n_features_to_predict'
p2374
F0.29999999999999999
sS'kmeans_type'
p2375
S'normal'
p2376
sS'max_depth'
p2377
I5
sg11
(g13
S'q\xcd\x03=<c\xdd?'
tRp2378
g11
(g13
S'\x00\x00\x00\x00\x00\x00 @'
tRp2379
tp2380
a(S'breast_cancer'
(dp2381
S'n_forests'
p2382
I100
sS'n_jobs'
p2383
I-1
sS'weight_extent'
p2384
I0
sS'n_trees'
p2385
I1
sS'k'
I8
sS'n_features_to_predict'
p2386
F0.29999999999999999
sS'kmeans_type'
p2387
S'squishy'
p2388
sS'max_depth'
p2389
I5
sg11
(g13
S'*c_\xe9\xb4\xca\xe1?'
tRp2390
g11
(g13
S'\x00\x00\x00\x00\x00\x00 @'
tRp2391
tp2392
a(S'breast_cancer'
(dp2393
S'n_forests'
p2394
I100
sS'n_jobs'
p2395
I-1
sS'weight_extent'
p2396
I0
sS'n_trees'
p2397
I1
sS'k'
I8
sS'n_features_to_predict'
p2398
F0.29999999999999999
sS'kmeans_type'
p2399
S'normal'
p2400
sS'max_depth'
p2401
I5
sg11
(g13
S'\xde\xbe\xfaO\x9cq\xda?'
tRp2402
g11
(g13
S'\x00\x00\x00\x00\x00\x00 @'
tRp2403
tp2404
a(S'boston'
(dp2405
S'n_forests'
p2406
I100
sS'n_jobs'
p2407
I-1
sS'weight_extent'
p2408
I0
sS'n_trees'
p2409
I1
sS'k'
I8
sS'n_features_to_predict'
p2410
F0.5
sS'kmeans_type'
p2411
S'squishy'
p2412
sS'max_depth'
p2413
I5
sg11
(g13
S'*\x9e{\x06m\x9d\xdc?'
tRp2414
g11
(g13
S'\x00\x00\x00\x00\x00\x00 @'
tRp2415
tp2416
a(S'boston'
(dp2417
S'n_forests'
p2418
I100
sS'n_jobs'
p2419
I-1
sS'weight_extent'
p2420
I0
sS'n_trees'
p2421
I1
sS'k'
I8
sS'n_features_to_predict'
p2422
F0.5
sS'kmeans_type'
p2423
S'normal'
p2424
sS'max_depth'
p2425
I5
sg11
(g13
S'\xde\xe1A\xfa\x16\x18\xdf?'
tRp2426
g11
(g13
S'\x00\x00\x00\x00\x00\x00 @'
tRp2427
tp2428
a(S'diabetes'
(dp2429
S'n_forests'
p2430
I100
sS'n_jobs'
p2431
I-1
sS'weight_extent'
p2432
I0
sS'n_trees'
p2433
I1
sS'k'
I8
sS'n_features_to_predict'
p2434
F0.5
sS'kmeans_type'
p2435
S'squishy'
p2436
sS'max_depth'
p2437
I5
sg11
(g13
S' \x82r-\xfb\x99\xe2?'
tRp2438
g11
(g13
S'\x00\x00\x00\x00\x00\x00 @'
tRp2439
tp2440
a(S'diabetes'
(dp2441
S'n_forests'
p2442
I100
sS'n_jobs'
p2443
I-1
sS'weight_extent'
p2444
I0
sS'n_trees'
p2445
I1
sS'k'
I8
sS'n_features_to_predict'
p2446
F0.5
sS'kmeans_type'
p2447
S'normal'
p2448
sS'max_depth'
p2449
I5
sg11
(g13
S'fqnP\xc5N\xe2?'
tRp2450
g11
(g13
S'\x00\x00\x00\x00\x00\x00 @'
tRp2451
tp2452
a(S'iris'
(dp2453
S'n_forests'
p2454
I100
sS'n_jobs'
p2455
I-1
sS'weight_extent'
p2456
I0
sS'n_trees'
p2457
I1
sS'k'
I8
sS'n_features_to_predict'
p2458
F0.5
sS'kmeans_type'
p2459
S'squishy'
p2460
sS'max_depth'
p2461
I5
sg11
(g13
S'\xfc\xc1\x1e\x10\xda\xa0\xd4?'
tRp2462
g11
(g13
S'\x00\x00\x00\x00\x00\x00 @'
tRp2463
tp2464
a(S'iris'
(dp2465
S'n_forests'
p2466
I100
sS'n_jobs'
p2467
I-1
sS'weight_extent'
p2468
I0
sS'n_trees'
p2469
I1
sS'k'
I8
sS'n_features_to_predict'
p2470
F0.5
sS'kmeans_type'
p2471
S'normal'
p2472
sS'max_depth'
p2473
I5
sg11
(g13
S'\xacwL\x1e\x7f\xa9\xe5?'
tRp2474
g11
(g13
S'\x00\x00\x00\x00\x00\x00 @'
tRp2475
tp2476
a(S'breast_cancer'
(dp2477
S'n_forests'
p2478
I100
sS'n_jobs'
p2479
I-1
sS'weight_extent'
p2480
I0
sS'n_trees'
p2481
I1
sS'k'
I8
sS'n_features_to_predict'
p2482
F0.5
sS'kmeans_type'
p2483
S'squishy'
p2484
sS'max_depth'
p2485
I5
sg11
(g13
S'\x14\xf2V\xba\x9d\x8b\xe3?'
tRp2486
g11
(g13
S'\x00\x00\x00\x00\x00\x00 @'
tRp2487
tp2488
a(S'breast_cancer'
(dp2489
S'n_forests'
p2490
I100
sS'n_jobs'
p2491
I-1
sS'weight_extent'
p2492
I0
sS'n_trees'
p2493
I1
sS'k'
I8
sS'n_features_to_predict'
p2494
F0.5
sS'kmeans_type'
p2495
S'normal'
p2496
sS'max_depth'
p2497
I5
sg11
(g13
S'\xfa\xe9\xf5\xffag\xe2?'
tRp2498
g11
(g13
S'\x00\x00\x00\x00\x00\x00 @'
tRp2499
tp2500
a(S'boston'
(dp2501
S'n_forests'
p2502
I100
sS'n_jobs'
p2503
I-1
sS'weight_extent'
p2504
I0
sS'n_trees'
p2505
I1
sS'k'
I10
sS'n_features_to_predict'
p2506
F0.29999999999999999
sS'kmeans_type'
p2507
S'squishy'
p2508
sS'max_depth'
p2509
I5
sg11
(g13
S'\xb2\x02\xbb=\x89\xe8\xda?'
tRp2510
g11
(g13
S'333333#@'
tRp2511
tp2512
a(S'boston'
(dp2513
S'n_forests'
p2514
I100
sS'n_jobs'
p2515
I-1
sS'weight_extent'
p2516
I0
sS'n_trees'
p2517
I1
sS'k'
I10
sS'n_features_to_predict'
p2518
F0.29999999999999999
sS'kmeans_type'
p2519
S'normal'
p2520
sS'max_depth'
p2521
I5
sg11
(g13
S"\xbd'\xd6N\xf4\xa5\xd9?"
tRp2522
g11
(g13
S'\x00\x00\x00\x00\x00\x00"@'
tRp2523
tp2524
a(S'diabetes'
(dp2525
S'n_forests'
p2526
I100
sS'n_jobs'
p2527
I-1
sS'weight_extent'
p2528
I0
sS'n_trees'
p2529
I1
sS'k'
I10
sS'n_features_to_predict'
p2530
F0.29999999999999999
sS'kmeans_type'
p2531
S'squishy'
p2532
sS'max_depth'
p2533
I5
sg11
(g13
S'G\x0f\xa0\xaa\xed\xf1\xe1?'
tRp2534
g11
(g13
S'\x00\x00\x00\x00\x00\x00$@'
tRp2535
tp2536
a(S'diabetes'
(dp2537
S'n_forests'
p2538
I100
sS'n_jobs'
p2539
I-1
sS'weight_extent'
p2540
I0
sS'n_trees'
p2541
I1
sS'k'
I10
sS'n_features_to_predict'
p2542
F0.29999999999999999
sS'kmeans_type'
p2543
S'normal'
p2544
sS'max_depth'
p2545
I5
sg11
(g13
S'\x9aK\xfd\x88\xc0\xed\xe1?'
tRp2546
g11
(g13
S'\x00\x00\x00\x00\x00\x00$@'
tRp2547
tp2548
a(S'iris'
(dp2549
S'n_forests'
p2550
I100
sS'n_jobs'
p2551
I-1
sS'weight_extent'
p2552
I0
sS'n_trees'
p2553
I1
sS'k'
I10
sS'n_features_to_predict'
p2554
F0.29999999999999999
sS'kmeans_type'
p2555
S'squishy'
p2556
sS'max_depth'
p2557
I5
sg11
(g13
S'\xa0t\xcf\x86\xab\x1b\xe2?'
tRp2558
g11
(g13
S'\x00\x00\x00\x00\x00\x00$@'
tRp2559
tp2560
a(S'iris'
(dp2561
S'n_forests'
p2562
I100
sS'n_jobs'
p2563
I-1
sS'weight_extent'
p2564
I0
sS'n_trees'
p2565
I1
sS'k'
I10
sS'n_features_to_predict'
p2566
F0.29999999999999999
sS'kmeans_type'
p2567
S'normal'
p2568
sS'max_depth'
p2569
I5
sg11
(g13
S'\xa0\xa3+\xc5Ce\xd3?'
tRp2570
g11
(g13
S'\x00\x00\x00\x00\x00\x80#@'
tRp2571
tp2572
a(S'breast_cancer'
(dp2573
S'n_forests'
p2574
I100
sS'n_jobs'
p2575
I-1
sS'weight_extent'
p2576
I0
sS'n_trees'
p2577
I1
sS'k'
I10
sS'n_features_to_predict'
p2578
F0.29999999999999999
sS'kmeans_type'
p2579
S'squishy'
p2580
sS'max_depth'
p2581
I5
sg11
(g13
S'\xb5\xc2j\x9f\x17\x1e\xe0?'
tRp2582
g11
(g13
S'\x00\x00\x00\x00\x00\x00$@'
tRp2583
tp2584
a(S'breast_cancer'
(dp2585
S'n_forests'
p2586
I100
sS'n_jobs'
p2587
I-1
sS'weight_extent'
p2588
I0
sS'n_trees'
p2589
I1
sS'k'
I10
sS'n_features_to_predict'
p2590
F0.29999999999999999
sS'kmeans_type'
p2591
S'normal'
p2592
sS'max_depth'
p2593
I5
sg11
(g13
S"\xb9'\xad\xb6n\xf1\xe0?"
tRp2594
g11
(g13
S'\x00\x00\x00\x00\x00\x00$@'
tRp2595
tp2596
a(S'boston'
(dp2597
S'n_forests'
p2598
I100
sS'n_jobs'
p2599
I-1
sS'weight_extent'
p2600
I0
sS'n_trees'
p2601
I1
sS'k'
I10
sS'n_features_to_predict'
p2602
F0.5
sS'kmeans_type'
p2603
S'squishy'
p2604
sS'max_depth'
p2605
I5
sg11
(g13
S'\xbdY.\xe6\x82\x1c\xd7?'
tRp2606
g11
(g13
S'\x00\x00\x00\x00\x00\x00$@'
tRp2607
tp2608
a(S'boston'
(dp2609
S'n_forests'
p2610
I100
sS'n_jobs'
p2611
I-1
sS'weight_extent'
p2612
I0
sS'n_trees'
p2613
I1
sS'k'
I10
sS'n_features_to_predict'
p2614
F0.5
sS'kmeans_type'
p2615
S'normal'
p2616
sS'max_depth'
p2617
I5
sg11
(g13
S'\x13Z\xea[\xb1n\xdc?'
tRp2618
g11
(g13
S'ffffff#@'
tRp2619
tp2620
a(S'diabetes'
(dp2621
S'n_forests'
p2622
I100
sS'n_jobs'
p2623
I-1
sS'weight_extent'
p2624
I0
sS'n_trees'
p2625
I1
sS'k'
I10
sS'n_features_to_predict'
p2626
F0.5
sS'kmeans_type'
p2627
S'squishy'
p2628
sS'max_depth'
p2629
I5
sg11
(g13
S'\xc2H\xf3L$\xd1\xe1?'
tRp2630
g11
(g13
S'\x00\x00\x00\x00\x00\x00$@'
tRp2631
tp2632
a(S'diabetes'
(dp2633
S'n_forests'
p2634
I100
sS'n_jobs'
p2635
I-1
sS'weight_extent'
p2636
I0
sS'n_trees'
p2637
I1
sS'k'
I10
sS'n_features_to_predict'
p2638
F0.5
sS'kmeans_type'
p2639
S'normal'
p2640
sS'max_depth'
p2641
I5
sg11
(g13
S'\xbb\x06\xfa\xccIA\xe2?'
tRp2642
g11
(g13
S'\x00\x00\x00\x00\x00\x00$@'
tRp2643
tp2644
a(S'iris'
(dp2645
S'n_forests'
p2646
I100
sS'n_jobs'
p2647
I-1
sS'weight_extent'
p2648
I0
sS'n_trees'
p2649
I1
sS'k'
I10
sS'n_features_to_predict'
p2650
F0.5
sS'kmeans_type'
p2651
S'squishy'
p2652
sS'max_depth'
p2653
I5
sg11
(g13
S'f\xca\xa7\xf3g\xee\xd9?'
tRp2654
g11
(g13
S'\x00\x00\x00\x00\x00\x00$@'
tRp2655
tp2656
a(S'iris'
(dp2657
S'n_forests'
p2658
I100
sS'n_jobs'
p2659
I-1
sS'weight_extent'
p2660
I0
sS'n_trees'
p2661
I1
sS'k'
I10
sS'n_features_to_predict'
p2662
F0.5
sS'kmeans_type'
p2663
S'normal'
p2664
sS'max_depth'
p2665
I5
sg11
(g13
S'\xc0F\xda$\xe6\xc2\xda?'
tRp2666
g11
(g13
S'\x00\x00\x00\x00\x00\x00"@'
tRp2667
tp2668
a(S'breast_cancer'
(dp2669
S'n_forests'
p2670
I100
sS'n_jobs'
p2671
I-1
sS'weight_extent'
p2672
I0
sS'n_trees'
p2673
I1
sS'k'
I10
sS'n_features_to_predict'
p2674
F0.5
sS'kmeans_type'
p2675
S'squishy'
p2676
sS'max_depth'
p2677
I5
sg11
(g13
S'\x83\xaff\xf7\x853\xe1?'
tRp2678
g11
(g13
S'\x00\x00\x00\x00\x00\x00$@'
tRp2679
tp2680
a(S'breast_cancer'
(dp2681
S'n_forests'
p2682
I100
sS'n_jobs'
p2683
I-1
sS'weight_extent'
p2684
I0
sS'n_trees'
p2685
I1
sS'k'
I10
sS'n_features_to_predict'
p2686
F0.5
sS'kmeans_type'
p2687
S'normal'
p2688
sS'max_depth'
p2689
I5
sg11
(g13
S'\xe0\xb5\xfd\xf0\x8f\xb6\xe3?'
tRp2690
g11
(g13
S'\x00\x00\x00\x00\x00\x00$@'
tRp2691
tp2692
a(S'boston'
(dp2693
S'n_forests'
p2694
I100
sS'n_jobs'
p2695
I-1
sS'weight_extent'
p2696
I0
sS'n_trees'
p2697
I1
sS'k'
I2
sS'n_features_to_predict'
p2698
F0.29999999999999999
sS'kmeans_type'
p2699
S'squishy'
p2700
sS'max_depth'
p2701
I6
sg11
(g13
S'\xbb7\x1a}o$\xe9?'
tRp2702
g11
(g13
S'\x00\x00\x00\x00\x00\x00\x00@'
tRp2703
tp2704
a(S'boston'
(dp2705
S'n_forests'
p2706
I100
sS'n_jobs'
p2707
I-1
sS'weight_extent'
p2708
I0
sS'n_trees'
p2709
I1
sS'k'
I2
sS'n_features_to_predict'
p2710
F0.29999999999999999
sS'kmeans_type'
p2711
S'normal'
p2712
sS'max_depth'
p2713
I6
sg11
(g13
S'\x94qa\xe1\xe2b\xe6?'
tRp2714
g11
(g13
S'\x00\x00\x00\x00\x00\x00\x00@'
tRp2715
tp2716
a(S'diabetes'
(dp2717
S'n_forests'
p2718
I100
sS'n_jobs'
p2719
I-1
sS'weight_extent'
p2720
I0
sS'n_trees'
p2721
I1
sS'k'
I2
sS'n_features_to_predict'
p2722
F0.29999999999999999
sS'kmeans_type'
p2723
S'squishy'
p2724
sS'max_depth'
p2725
I6
sg11
(g13
S'SK\xe9B\xf4C\xe8?'
tRp2726
g11
(g13
S'\x00\x00\x00\x00\x00\x00\x00@'
tRp2727
tp2728
a(S'diabetes'
(dp2729
S'n_forests'
p2730
I100
sS'n_jobs'
p2731
I-1
sS'weight_extent'
p2732
I0
sS'n_trees'
p2733
I1
sS'k'
I2
sS'n_features_to_predict'
p2734
F0.29999999999999999
sS'kmeans_type'
p2735
S'normal'
p2736
sS'max_depth'
p2737
I6
sg11
(g13
S'=\xa0mK\xcd"\xe8?'
tRp2738
g11
(g13
S'\x00\x00\x00\x00\x00\x00\x00@'
tRp2739
tp2740
a(S'iris'
(dp2741
S'n_forests'
p2742
I100
sS'n_jobs'
p2743
I-1
sS'weight_extent'
p2744
I0
sS'n_trees'
p2745
I1
sS'k'
I2
sS'n_features_to_predict'
p2746
F0.29999999999999999
sS'kmeans_type'
p2747
S'squishy'
p2748
sS'max_depth'
p2749
I6
sg11
(g13
S"^2=\xab\x9d'\xe7?"
tRp2750
g11
(g13
S'\x00\x00\x00\x00\x00\x00\x00@'
tRp2751
tp2752
a(S'iris'
(dp2753
S'n_forests'
p2754
I100
sS'n_jobs'
p2755
I-1
sS'weight_extent'
p2756
I0
sS'n_trees'
p2757
I1
sS'k'
I2
sS'n_features_to_predict'
p2758
F0.29999999999999999
sS'kmeans_type'
p2759
S'normal'
p2760
sS'max_depth'
p2761
I6
sg11
(g13
S'*G\xf1>R\xb1\xe6?'
tRp2762
g11
(g13
S'\x00\x00\x00\x00\x00\x00\x00@'
tRp2763
tp2764
a(S'breast_cancer'
(dp2765
S'n_forests'
p2766
I100
sS'n_jobs'
p2767
I-1
sS'weight_extent'
p2768
I0
sS'n_trees'
p2769
I1
sS'k'
I2
sS'n_features_to_predict'
p2770
F0.29999999999999999
sS'kmeans_type'
p2771
S'squishy'
p2772
sS'max_depth'
p2773
I6
sg11
(g13
S'(\x0f\x04v\xb9\x1a\xea?'
tRp2774
g11
(g13
S'\x00\x00\x00\x00\x00\x00\x00@'
tRp2775
tp2776
a(S'breast_cancer'
(dp2777
S'n_forests'
p2778
I100
sS'n_jobs'
p2779
I-1
sS'weight_extent'
p2780
I0
sS'n_trees'
p2781
I1
sS'k'
I2
sS'n_features_to_predict'
p2782
F0.29999999999999999
sS'kmeans_type'
p2783
S'normal'
p2784
sS'max_depth'
p2785
I6
sg11
(g13
S'\x97t4e\x9c\xe0\xe3?'
tRp2786
g11
(g13
S'\x00\x00\x00\x00\x00\x00\x00@'
tRp2787
tp2788
a(S'boston'
(dp2789
S'n_forests'
p2790
I100
sS'n_jobs'
p2791
I-1
sS'weight_extent'
p2792
I0
sS'n_trees'
p2793
I1
sS'k'
I2
sS'n_features_to_predict'
p2794
F0.5
sS'kmeans_type'
p2795
S'squishy'
p2796
sS'max_depth'
p2797
I6
sg11
(g13
S"\x0fw\r'l\x1c\xe9?"
tRp2798
g11
(g13
S'\x00\x00\x00\x00\x00\x00\x00@'
tRp2799
tp2800
a(S'boston'
(dp2801
S'n_forests'
p2802
I100
sS'n_jobs'
p2803
I-1
sS'weight_extent'
p2804
I0
sS'n_trees'
p2805
I1
sS'k'
I2
sS'n_features_to_predict'
p2806
F0.5
sS'kmeans_type'
p2807
S'normal'
p2808
sS'max_depth'
p2809
I6
sg11
(g13
S'\xf8\xdcD\x89\xcd\xb6\xe4?'
tRp2810
g11
(g13
S'\x00\x00\x00\x00\x00\x00\x00@'
tRp2811
tp2812
a(S'diabetes'
(dp2813
S'n_forests'
p2814
I100
sS'n_jobs'
p2815
I-1
sS'weight_extent'
p2816
I0
sS'n_trees'
p2817
I1
sS'k'
I2
sS'n_features_to_predict'
p2818
F0.5
sS'kmeans_type'
p2819
S'squishy'
p2820
sS'max_depth'
p2821
I6
sg11
(g13
S'\xbeP8\x90o\xa2\xe7?'
tRp2822
g11
(g13
S'\x00\x00\x00\x00\x00\x00\x00@'
tRp2823
tp2824
a(S'diabetes'
(dp2825
S'n_forests'
p2826
I100
sS'n_jobs'
p2827
I-1
sS'weight_extent'
p2828
I0
sS'n_trees'
p2829
I1
sS'k'
I2
sS'n_features_to_predict'
p2830
F0.5
sS'kmeans_type'
p2831
S'normal'
p2832
sS'max_depth'
p2833
I6
sg11
(g13
S'\xfdHm,\xcf\xbf\xe8?'
tRp2834
g11
(g13
S'\x00\x00\x00\x00\x00\x00\x00@'
tRp2835
tp2836
a(S'iris'
(dp2837
S'n_forests'
p2838
I100
sS'n_jobs'
p2839
I-1
sS'weight_extent'
p2840
I0
sS'n_trees'
p2841
I1
sS'k'
I2
sS'n_features_to_predict'
p2842
F0.5
sS'kmeans_type'
p2843
S'squishy'
p2844
sS'max_depth'
p2845
I6
sg11
(g13
S'\xe1X\x00\x16\x90\xdb\xe9?'
tRp2846
g11
(g13
S'\x00\x00\x00\x00\x00\x00\x00@'
tRp2847
tp2848
a(S'iris'
(dp2849
S'n_forests'
p2850
I100
sS'n_jobs'
p2851
I-1
sS'weight_extent'
p2852
I0
sS'n_trees'
p2853
I1
sS'k'
I2
sS'n_features_to_predict'
p2854
F0.5
sS'kmeans_type'
p2855
S'normal'
p2856
sS'max_depth'
p2857
I6
sg11
(g13
S'\xd5\x11N7>\x00\xeb?'
tRp2858
g11
(g13
S'\x00\x00\x00\x00\x00\x00\x00@'
tRp2859
tp2860
a(S'breast_cancer'
(dp2861
S'n_forests'
p2862
I100
sS'n_jobs'
p2863
I-1
sS'weight_extent'
p2864
I0
sS'n_trees'
p2865
I1
sS'k'
I2
sS'n_features_to_predict'
p2866
F0.5
sS'kmeans_type'
p2867
S'squishy'
p2868
sS'max_depth'
p2869
I6
sg11
(g13
S'\x16\x0c\xc0\x0c\xe4\xec\xe7?'
tRp2870
g11
(g13
S'\x00\x00\x00\x00\x00\x00\x00@'
tRp2871
tp2872
a(S'breast_cancer'
(dp2873
S'n_forests'
p2874
I100
sS'n_jobs'
p2875
I-1
sS'weight_extent'
p2876
I0
sS'n_trees'
p2877
I1
sS'k'
I2
sS'n_features_to_predict'
p2878
F0.5
sS'kmeans_type'
p2879
S'normal'
p2880
sS'max_depth'
p2881
I6
sg11
(g13
S'\x82Q\x93\x8d\x8dH\xec?'
tRp2882
g11
(g13
S'\x00\x00\x00\x00\x00\x00\x00@'
tRp2883
tp2884
a(S'boston'
(dp2885
S'n_forests'
p2886
I100
sS'n_jobs'
p2887
I-1
sS'weight_extent'
p2888
I0
sS'n_trees'
p2889
I1
sS'k'
I3
sS'n_features_to_predict'
p2890
F0.29999999999999999
sS'kmeans_type'
p2891
S'squishy'
p2892
sS'max_depth'
p2893
I6
sg11
(g13
S'Z\x17\x03\xbc[l\xe0?'
tRp2894
g11
(g13
S'\x00\x00\x00\x00\x00\x00\x08@'
tRp2895
tp2896
a(S'boston'
(dp2897
S'n_forests'
p2898
I100
sS'n_jobs'
p2899
I-1
sS'weight_extent'
p2900
I0
sS'n_trees'
p2901
I1
sS'k'
I3
sS'n_features_to_predict'
p2902
F0.29999999999999999
sS'kmeans_type'
p2903
S'normal'
p2904
sS'max_depth'
p2905
I6
sg11
(g13
S'\x12%\x9d\xe1\xa3t\xe4?'
tRp2906
g11
(g13
S'\x00\x00\x00\x00\x00\x00\x08@'
tRp2907
tp2908
a(S'diabetes'
(dp2909
S'n_forests'
p2910
I100
sS'n_jobs'
p2911
I-1
sS'weight_extent'
p2912
I0
sS'n_trees'
p2913
I1
sS'k'
I3
sS'n_features_to_predict'
p2914
F0.29999999999999999
sS'kmeans_type'
p2915
S'squishy'
p2916
sS'max_depth'
p2917
I6
sg11
(g13
S'\xa6\xb5l{\xe0\xdf\xe6?'
tRp2918
g11
(g13
S'\x00\x00\x00\x00\x00\x00\x08@'
tRp2919
tp2920
a(S'diabetes'
(dp2921
S'n_forests'
p2922
I100
sS'n_jobs'
p2923
I-1
sS'weight_extent'
p2924
I0
sS'n_trees'
p2925
I1
sS'k'
I3
sS'n_features_to_predict'
p2926
F0.29999999999999999
sS'kmeans_type'
p2927
S'normal'
p2928
sS'max_depth'
p2929
I6
sg11
(g13
S'\x92\x07\xd06\x14H\xe7?'
tRp2930
g11
(g13
S'\x00\x00\x00\x00\x00\x00\x08@'
tRp2931
tp2932
a(S'iris'
(dp2933
S'n_forests'
p2934
I100
sS'n_jobs'
p2935
I-1
sS'weight_extent'
p2936
I0
sS'n_trees'
p2937
I1
sS'k'
I3
sS'n_features_to_predict'
p2938
F0.29999999999999999
sS'kmeans_type'
p2939
S'squishy'
p2940
sS'max_depth'
p2941
I6
sg11
(g13
S'c\xb4\xd1\xa5l\xed\xe6?'
tRp2942
g11
(g13
S'\x00\x00\x00\x00\x00\x00\x08@'
tRp2943
tp2944
a(S'iris'
(dp2945
S'n_forests'
p2946
I100
sS'n_jobs'
p2947
I-1
sS'weight_extent'
p2948
I0
sS'n_trees'
p2949
I1
sS'k'
I3
sS'n_features_to_predict'
p2950
F0.29999999999999999
sS'kmeans_type'
p2951
S'normal'
p2952
sS'max_depth'
p2953
I6
sg11
(g13
S'\xe1\xde\x91\xf5\x0e,\xe7?'
tRp2954
g11
(g13
S'\x00\x00\x00\x00\x00\x00\x08@'
tRp2955
tp2956
a(S'breast_cancer'
(dp2957
S'n_forests'
p2958
I100
sS'n_jobs'
p2959
I-1
sS'weight_extent'
p2960
I0
sS'n_trees'
p2961
I1
sS'k'
I3
sS'n_features_to_predict'
p2962
F0.29999999999999999
sS'kmeans_type'
p2963
S'squishy'
p2964
sS'max_depth'
p2965
I6
sg11
(g13
S'\xeb\xe0\xd4\x9c\x07?\xe5?'
tRp2966
g11
(g13
S'\x00\x00\x00\x00\x00\x00\x08@'
tRp2967
tp2968
a(S'breast_cancer'
(dp2969
S'n_forests'
p2970
I100
sS'n_jobs'
p2971
I-1
sS'weight_extent'
p2972
I0
sS'n_trees'
p2973
I1
sS'k'
I3
sS'n_features_to_predict'
p2974
F0.29999999999999999
sS'kmeans_type'
p2975
S'normal'
p2976
sS'max_depth'
p2977
I6
sg11
(g13
S'z\x97k\xa0\xb9}\xe3?'
tRp2978
g11
(g13
S'\x00\x00\x00\x00\x00\x00\x08@'
tRp2979
tp2980
a(S'boston'
(dp2981
S'n_forests'
p2982
I100
sS'n_jobs'
p2983
I-1
sS'weight_extent'
p2984
I0
sS'n_trees'
p2985
I1
sS'k'
I3
sS'n_features_to_predict'
p2986
F0.5
sS'kmeans_type'
p2987
S'squishy'
p2988
sS'max_depth'
p2989
I6
sg11
(g13
S'\x1a\xd3H\xee\x08\x7f\xe3?'
tRp2990
g11
(g13
S'\x00\x00\x00\x00\x00\x00\x08@'
tRp2991
tp2992
a(S'boston'
(dp2993
S'n_forests'
p2994
I100
sS'n_jobs'
p2995
I-1
sS'weight_extent'
p2996
I0
sS'n_trees'
p2997
I1
sS'k'
I3
sS'n_features_to_predict'
p2998
F0.5
sS'kmeans_type'
p2999
S'normal'
p3000
sS'max_depth'
p3001
I6
sg11
(g13
S'\xb6\x8d\x82\xed\x89o\xe3?'
tRp3002
g11
(g13
S'\x00\x00\x00\x00\x00\x00\x08@'
tRp3003
tp3004
a(S'diabetes'
(dp3005
S'n_forests'
p3006
I100
sS'n_jobs'
p3007
I-1
sS'weight_extent'
p3008
I0
sS'n_trees'
p3009
I1
sS'k'
I3
sS'n_features_to_predict'
p3010
F0.5
sS'kmeans_type'
p3011
S'squishy'
p3012
sS'max_depth'
p3013
I6
sg11
(g13
S'\xb4\xe6\x9c-S\xac\xe6?'
tRp3014
g11
(g13
S'\x00\x00\x00\x00\x00\x00\x08@'
tRp3015
tp3016
a(S'diabetes'
(dp3017
S'n_forests'
p3018
I100
sS'n_jobs'
p3019
I-1
sS'weight_extent'
p3020
I0
sS'n_trees'
p3021
I1
sS'k'
I3
sS'n_features_to_predict'
p3022
F0.5
sS'kmeans_type'
p3023
S'normal'
p3024
sS'max_depth'
p3025
I6
sg11
(g13
S';x\x87\x8eu\xe9\xe6?'
tRp3026
g11
(g13
S'\x00\x00\x00\x00\x00\x00\x08@'
tRp3027
tp3028
a(S'iris'
(dp3029
S'n_forests'
p3030
I100
sS'n_jobs'
p3031
I-1
sS'weight_extent'
p3032
I0
sS'n_trees'
p3033
I1
sS'k'
I3
sS'n_features_to_predict'
p3034
F0.5
sS'kmeans_type'
p3035
S'squishy'
p3036
sS'max_depth'
p3037
I6
sg11
(g13
S'\xbe\x1ei\xdau\xca\xe6?'
tRp3038
g11
(g13
S'\x00\x00\x00\x00\x00\x00\x08@'
tRp3039
tp3040
a(S'iris'
(dp3041
S'n_forests'
p3042
I100
sS'n_jobs'
p3043
I-1
sS'weight_extent'
p3044
I0
sS'n_trees'
p3045
I1
sS'k'
I3
sS'n_features_to_predict'
p3046
F0.5
sS'kmeans_type'
p3047
S'normal'
p3048
sS'max_depth'
p3049
I6
sg11
(g13
S'\n\x13\xcb\x1b\x17\x1b\xe3?'
tRp3050
g11
(g13
S'\x00\x00\x00\x00\x00\x00\x08@'
tRp3051
tp3052
a(S'breast_cancer'
(dp3053
S'n_forests'
p3054
I100
sS'n_jobs'
p3055
I-1
sS'weight_extent'
p3056
I0
sS'n_trees'
p3057
I1
sS'k'
I3
sS'n_features_to_predict'
p3058
F0.5
sS'kmeans_type'
p3059
S'squishy'
p3060
sS'max_depth'
p3061
I6
sg11
(g13
S'6\x07b\xa4\x9c\xb0\xe6?'
tRp3062
g11
(g13
S'\x00\x00\x00\x00\x00\x00\x08@'
tRp3063
tp3064
a(S'breast_cancer'
(dp3065
S'n_forests'
p3066
I100
sS'n_jobs'
p3067
I-1
sS'weight_extent'
p3068
I0
sS'n_trees'
p3069
I1
sS'k'
I3
sS'n_features_to_predict'
p3070
F0.5
sS'kmeans_type'
p3071
S'normal'
p3072
sS'max_depth'
p3073
I6
sg11
(g13
S'E\xe6\xf3\x08\x14j\xe2?'
tRp3074
g11
(g13
S'\x00\x00\x00\x00\x00\x00\x08@'
tRp3075
tp3076
a(S'boston'
(dp3077
S'n_forests'
p3078
I100
sS'n_jobs'
p3079
I-1
sS'weight_extent'
p3080
I0
sS'n_trees'
p3081
I1
sS'k'
I4
sS'n_features_to_predict'
p3082
F0.29999999999999999
sS'kmeans_type'
p3083
S'squishy'
p3084
sS'max_depth'
p3085
I6
sg11
(g13
S'\x9a7\x92\xc5\xc0\x9f\xde?'
tRp3086
g11
(g13
S'\x00\x00\x00\x00\x00\x00\x10@'
tRp3087
tp3088
a(S'boston'
(dp3089
S'n_forests'
p3090
I100
sS'n_jobs'
p3091
I-1
sS'weight_extent'
p3092
I0
sS'n_trees'
p3093
I1
sS'k'
I4
sS'n_features_to_predict'
p3094
F0.29999999999999999
sS'kmeans_type'
p3095
S'normal'
p3096
sS'max_depth'
p3097
I6
sg11
(g13
S'\xa6\xbe$\x98r\xb5\xe2?'
tRp3098
g11
(g13
S'\x00\x00\x00\x00\x00\x00\x10@'
tRp3099
tp3100
a(S'diabetes'
(dp3101
S'n_forests'
p3102
I100
sS'n_jobs'
p3103
I-1
sS'weight_extent'
p3104
I0
sS'n_trees'
p3105
I1
sS'k'
I4
sS'n_features_to_predict'
p3106
F0.29999999999999999
sS'kmeans_type'
p3107
S'squishy'
p3108
sS'max_depth'
p3109
I6
sg11
(g13
S"z\xc2\x93_'+\xe5?"
tRp3110
g11
(g13
S'\x00\x00\x00\x00\x00\x00\x10@'
tRp3111
tp3112
a(S'diabetes'
(dp3113
S'n_forests'
p3114
I100
sS'n_jobs'
p3115
I-1
sS'weight_extent'
p3116
I0
sS'n_trees'
p3117
I1
sS'k'
I4
sS'n_features_to_predict'
p3118
F0.29999999999999999
sS'kmeans_type'
p3119
S'normal'
p3120
sS'max_depth'
p3121
I6
sg11
(g13
S'\xf4\xb6\xd1\xa9W\xd3\xe5?'
tRp3122
g11
(g13
S'\x00\x00\x00\x00\x00\x00\x10@'
tRp3123
tp3124
a(S'iris'
(dp3125
S'n_forests'
p3126
I100
sS'n_jobs'
p3127
I-1
sS'weight_extent'
p3128
I0
sS'n_trees'
p3129
I1
sS'k'
I4
sS'n_features_to_predict'
p3130
F0.29999999999999999
sS'kmeans_type'
p3131
S'squishy'
p3132
sS'max_depth'
p3133
I6
sg11
(g13
S'\x9d\xf1\xdf\xcf\xa9\xa2\xe6?'
tRp3134
g11
(g13
S'\x00\x00\x00\x00\x00\x00\x10@'
tRp3135
tp3136
a(S'iris'
(dp3137
S'n_forests'
p3138
I100
sS'n_jobs'
p3139
I-1
sS'weight_extent'
p3140
I0
sS'n_trees'
p3141
I1
sS'k'
I4
sS'n_features_to_predict'
p3142
F0.29999999999999999
sS'kmeans_type'
p3143
S'normal'
p3144
sS'max_depth'
p3145
I6
sg11
(g13
S'\x84\x85\xb6\xe0\x0e\x06\xe5?'
tRp3146
g11
(g13
S'\x00\x00\x00\x00\x00\x00\x10@'
tRp3147
tp3148
a(S'breast_cancer'
(dp3149
S'n_forests'
p3150
I100
sS'n_jobs'
p3151
I-1
sS'weight_extent'
p3152
I0
sS'n_trees'
p3153
I1
sS'k'
I4
sS'n_features_to_predict'
p3154
F0.29999999999999999
sS'kmeans_type'
p3155
S'squishy'
p3156
sS'max_depth'
p3157
I6
sg11
(g13
S'\xa6\x1a\x9c\xf0\xcd\xf1\xe1?'
tRp3158
g11
(g13
S'\x00\x00\x00\x00\x00\x00\x10@'
tRp3159
tp3160
a(S'breast_cancer'
(dp3161
S'n_forests'
p3162
I100
sS'n_jobs'
p3163
I-1
sS'weight_extent'
p3164
I0
sS'n_trees'
p3165
I1
sS'k'
I4
sS'n_features_to_predict'
p3166
F0.29999999999999999
sS'kmeans_type'
p3167
S'normal'
p3168
sS'max_depth'
p3169
I6
sg11
(g13
S'Qx\xac\x95\x05\xb5\xe6?'
tRp3170
g11
(g13
S'\x00\x00\x00\x00\x00\x00\x10@'
tRp3171
tp3172
a(S'boston'
(dp3173
S'n_forests'
p3174
I100
sS'n_jobs'
p3175
I-1
sS'weight_extent'
p3176
I0
sS'n_trees'
p3177
I1
sS'k'
I4
sS'n_features_to_predict'
p3178
F0.5
sS'kmeans_type'
p3179
S'squishy'
p3180
sS'max_depth'
p3181
I6
sg11
(g13
S'\xc6K\x956}\xf1\xe0?'
tRp3182
g11
(g13
S'\x00\x00\x00\x00\x00\x00\x10@'
tRp3183
tp3184
a(S'boston'
(dp3185
S'n_forests'
p3186
I100
sS'n_jobs'
p3187
I-1
sS'weight_extent'
p3188
I0
sS'n_trees'
p3189
I1
sS'k'
I4
sS'n_features_to_predict'
p3190
F0.5
sS'kmeans_type'
p3191
S'normal'
p3192
sS'max_depth'
p3193
I6
sg11
(g13
S'sA\xea\x7f\xc3\x97\xe1?'
tRp3194
g11
(g13
S'\x00\x00\x00\x00\x00\x00\x10@'
tRp3195
tp3196
a(S'diabetes'
(dp3197
S'n_forests'
p3198
I100
sS'n_jobs'
p3199
I-1
sS'weight_extent'
p3200
I0
sS'n_trees'
p3201
I1
sS'k'
I4
sS'n_features_to_predict'
p3202
F0.5
sS'kmeans_type'
p3203
S'squishy'
p3204
sS'max_depth'
p3205
I6
sg11
(g13
S'\x89~i\xac\x8e\x19\xe5?'
tRp3206
g11
(g13
S'\x00\x00\x00\x00\x00\x00\x10@'
tRp3207
tp3208
a(S'diabetes'
(dp3209
S'n_forests'
p3210
I100
sS'n_jobs'
p3211
I-1
sS'weight_extent'
p3212
I0
sS'n_trees'
p3213
I1
sS'k'
I4
sS'n_features_to_predict'
p3214
F0.5
sS'kmeans_type'
p3215
S'normal'
p3216
sS'max_depth'
p3217
I6
sg11
(g13
S'$\xb1\t\xe2\xa1\x8a\xe5?'
tRp3218
g11
(g13
S'\x00\x00\x00\x00\x00\x00\x10@'
tRp3219
tp3220
a(S'iris'
(dp3221
S'n_forests'
p3222
I100
sS'n_jobs'
p3223
I-1
sS'weight_extent'
p3224
I0
sS'n_trees'
p3225
I1
sS'k'
I4
sS'n_features_to_predict'
p3226
F0.5
sS'kmeans_type'
p3227
S'squishy'
p3228
sS'max_depth'
p3229
I6
sg11
(g13
S':ZMO!\x19\xe6?'
tRp3230
g11
(g13
S'\x00\x00\x00\x00\x00\x00\x10@'
tRp3231
tp3232
a(S'iris'
(dp3233
S'n_forests'
p3234
I100
sS'n_jobs'
p3235
I-1
sS'weight_extent'
p3236
I0
sS'n_trees'
p3237
I1
sS'k'
I4
sS'n_features_to_predict'
p3238
F0.5
sS'kmeans_type'
p3239
S'normal'
p3240
sS'max_depth'
p3241
I6
sg11
(g13
S'\xcc!\xab1\xab/\xe6?'
tRp3242
g11
(g13
S'\x00\x00\x00\x00\x00\x00\x10@'
tRp3243
tp3244
a(S'breast_cancer'
(dp3245
S'n_forests'
p3246
I100
sS'n_jobs'
p3247
I-1
sS'weight_extent'
p3248
I0
sS'n_trees'
p3249
I1
sS'k'
I4
sS'n_features_to_predict'
p3250
F0.5
sS'kmeans_type'
p3251
S'squishy'
p3252
sS'max_depth'
p3253
I6
sg11
(g13
S'\xae\xd1\x9b]i\x19\xe3?'
tRp3254
g11
(g13
S'\x00\x00\x00\x00\x00\x00\x10@'
tRp3255
tp3256
a(S'breast_cancer'
(dp3257
S'n_forests'
p3258
I100
sS'n_jobs'
p3259
I-1
sS'weight_extent'
p3260
I0
sS'n_trees'
p3261
I1
sS'k'
I4
sS'n_features_to_predict'
p3262
F0.5
sS'kmeans_type'
p3263
S'normal'
p3264
sS'max_depth'
p3265
I6
sg11
(g13
S'-\xe8\x1d\x06\x0b\x9f\xe6?'
tRp3266
g11
(g13
S'\x00\x00\x00\x00\x00\x00\x10@'
tRp3267
tp3268
a(S'boston'
(dp3269
S'n_forests'
p3270
I100
sS'n_jobs'
p3271
I-1
sS'weight_extent'
p3272
I0
sS'n_trees'
p3273
I1
sS'k'
I5
sS'n_features_to_predict'
p3274
F0.29999999999999999
sS'kmeans_type'
p3275
S'squishy'
p3276
sS'max_depth'
p3277
I6
sg11
(g13
S'\x86\x16b\x89a7\xdf?'
tRp3278
g11
(g13
S'\x00\x00\x00\x00\x00\x00\x14@'
tRp3279
tp3280
a(S'boston'
(dp3281
S'n_forests'
p3282
I100
sS'n_jobs'
p3283
I-1
sS'weight_extent'
p3284
I0
sS'n_trees'
p3285
I1
sS'k'
I5
sS'n_features_to_predict'
p3286
F0.29999999999999999
sS'kmeans_type'
p3287
S'normal'
p3288
sS'max_depth'
p3289
I6
sg11
(g13
S'5\xb9\xe8\xdf\x88\xa5\xe0?'
tRp3290
g11
(g13
S'\x00\x00\x00\x00\x00\x00\x14@'
tRp3291
tp3292
a(S'diabetes'
(dp3293
S'n_forests'
p3294
I100
sS'n_jobs'
p3295
I-1
sS'weight_extent'
p3296
I0
sS'n_trees'
p3297
I1
sS'k'
I5
sS'n_features_to_predict'
p3298
F0.29999999999999999
sS'kmeans_type'
p3299
S'squishy'
p3300
sS'max_depth'
p3301
I6
sg11
(g13
S'\x16\xce\xfc\xc5\xdf\xbc\xe4?'
tRp3302
g11
(g13
S'\x00\x00\x00\x00\x00\x00\x14@'
tRp3303
tp3304
a(S'diabetes'
(dp3305
S'n_forests'
p3306
I100
sS'n_jobs'
p3307
I-1
sS'weight_extent'
p3308
I0
sS'n_trees'
p3309
I1
sS'k'
I5
sS'n_features_to_predict'
p3310
F0.29999999999999999
sS'kmeans_type'
p3311
S'normal'
p3312
sS'max_depth'
p3313
I6
sg11
(g13
S'\x1e\x07J\xa7\xd7Y\xe4?'
tRp3314
g11
(g13
S'\x00\x00\x00\x00\x00\x00\x14@'
tRp3315
tp3316
a(S'iris'
(dp3317
S'n_forests'
p3318
I100
sS'n_jobs'
p3319
I-1
sS'weight_extent'
p3320
I0
sS'n_trees'
p3321
I1
sS'k'
I5
sS'n_features_to_predict'
p3322
F0.29999999999999999
sS'kmeans_type'
p3323
S'squishy'
p3324
sS'max_depth'
p3325
I6
sg11
(g13
S'\xde\x07]+F\x07\xe4?'
tRp3326
g11
(g13
S'\x00\x00\x00\x00\x00\x00\x14@'
tRp3327
tp3328
a(S'iris'
(dp3329
S'n_forests'
p3330
I100
sS'n_jobs'
p3331
I-1
sS'weight_extent'
p3332
I0
sS'n_trees'
p3333
I1
sS'k'
I5
sS'n_features_to_predict'
p3334
F0.29999999999999999
sS'kmeans_type'
p3335
S'normal'
p3336
sS'max_depth'
p3337
I6
sg11
(g13
S'\xb7T\xa3x-a\xe7?'
tRp3338
g11
(g13
S'\x00\x00\x00\x00\x00\x00\x14@'
tRp3339
tp3340
a(S'breast_cancer'
(dp3341
S'n_forests'
p3342
I100
sS'n_jobs'
p3343
I-1
sS'weight_extent'
p3344
I0
sS'n_trees'
p3345
I1
sS'k'
I5
sS'n_features_to_predict'
p3346
F0.29999999999999999
sS'kmeans_type'
p3347
S'squishy'
p3348
sS'max_depth'
p3349
I6
sg11
(g13
S'\xe9\x19<\xc3O\x01\xe1?'
tRp3350
g11
(g13
S'\x00\x00\x00\x00\x00\x00\x14@'
tRp3351
tp3352
a(S'breast_cancer'
(dp3353
S'n_forests'
p3354
I100
sS'n_jobs'
p3355
I-1
sS'weight_extent'
p3356
I0
sS'n_trees'
p3357
I1
sS'k'
I5
sS'n_features_to_predict'
p3358
F0.29999999999999999
sS'kmeans_type'
p3359
S'normal'
p3360
sS'max_depth'
p3361
I6
sg11
(g13
S'\xbfX\xfd\x14G\x1b\xe4?'
tRp3362
g11
(g13
S'\x00\x00\x00\x00\x00\x00\x14@'
tRp3363
tp3364
a(S'boston'
(dp3365
S'n_forests'
p3366
I100
sS'n_jobs'
p3367
I-1
sS'weight_extent'
p3368
I0
sS'n_trees'
p3369
I1
sS'k'
I5
sS'n_features_to_predict'
p3370
F0.5
sS'kmeans_type'
p3371
S'squishy'
p3372
sS'max_depth'
p3373
I6
sg11
(g13
S'\x86\xd3\xeb*\x93\xcb\xde?'
tRp3374
g11
(g13
S'\x00\x00\x00\x00\x00\x00\x14@'
tRp3375
tp3376
a(S'boston'
(dp3377
S'n_forests'
p3378
I100
sS'n_jobs'
p3379
I-1
sS'weight_extent'
p3380
I0
sS'n_trees'
p3381
I1
sS'k'
I5
sS'n_features_to_predict'
p3382
F0.5
sS'kmeans_type'
p3383
S'normal'
p3384
sS'max_depth'
p3385
I6
sg11
(g13
S'=\xe5)\xfa\xd4v\xde?'
tRp3386
g11
(g13
S'\xcd\xcc\xcc\xcc\xcc\xcc\x10@'
tRp3387
tp3388
a(S'diabetes'
(dp3389
S'n_forests'
p3390
I100
sS'n_jobs'
p3391
I-1
sS'weight_extent'
p3392
I0
sS'n_trees'
p3393
I1
sS'k'
I5
sS'n_features_to_predict'
p3394
F0.5
sS'kmeans_type'
p3395
S'squishy'
p3396
sS'max_depth'
p3397
I6
sg11
(g13
S'k\xf4\xa8!+\n\xe4?'
tRp3398
g11
(g13
S'\x00\x00\x00\x00\x00\x00\x14@'
tRp3399
tp3400
a(S'diabetes'
(dp3401
S'n_forests'
p3402
I100
sS'n_jobs'
p3403
I-1
sS'weight_extent'
p3404
I0
sS'n_trees'
p3405
I1
sS'k'
I5
sS'n_features_to_predict'
p3406
F0.5
sS'kmeans_type'
p3407
S'normal'
p3408
sS'max_depth'
p3409
I6
sg11
(g13
S'\xd8!Z\xcf\x83\n\xe4?'
tRp3410
g11
(g13
S'\x00\x00\x00\x00\x00\x00\x14@'
tRp3411
tp3412
a(S'iris'
(dp3413
S'n_forests'
p3414
I100
sS'n_jobs'
p3415
I-1
sS'weight_extent'
p3416
I0
sS'n_trees'
p3417
I1
sS'k'
I5
sS'n_features_to_predict'
p3418
F0.5
sS'kmeans_type'
p3419
S'squishy'
p3420
sS'max_depth'
p3421
I6
sg11
(g13
S'\xf0!\x8b\xcc\xdbC\xe6?'
tRp3422
g11
(g13
S'\x00\x00\x00\x00\x00\x00\x14@'
tRp3423
tp3424
a(S'iris'
(dp3425
S'n_forests'
p3426
I100
sS'n_jobs'
p3427
I-1
sS'weight_extent'
p3428
I0
sS'n_trees'
p3429
I1
sS'k'
I5
sS'n_features_to_predict'
p3430
F0.5
sS'kmeans_type'
p3431
S'normal'
p3432
sS'max_depth'
p3433
I6
sg11
(g13
S'b\xac6\xfap\x89\xe4?'
tRp3434
g11
(g13
S'\x00\x00\x00\x00\x00\x00\x14@'
tRp3435
tp3436
a(S'breast_cancer'
(dp3437
S'n_forests'
p3438
I100
sS'n_jobs'
p3439
I-1
sS'weight_extent'
p3440
I0
sS'n_trees'
p3441
I1
sS'k'
I5
sS'n_features_to_predict'
p3442
F0.5
sS'kmeans_type'
p3443
S'squishy'
p3444
sS'max_depth'
p3445
I6
sg11
(g13
S'\x95\x90\x05\x04\x16+\xe1?'
tRp3446
g11
(g13
S'\x00\x00\x00\x00\x00\x00\x14@'
tRp3447
tp3448
a(S'breast_cancer'
(dp3449
S'n_forests'
p3450
I100
sS'n_jobs'
p3451
I-1
sS'weight_extent'
p3452
I0
sS'n_trees'
p3453
I1
sS'k'
I5
sS'n_features_to_predict'
p3454
F0.5
sS'kmeans_type'
p3455
S'normal'
p3456
sS'max_depth'
p3457
I6
sg11
(g13
S'e\xeb\x00\x04\xe1\x8a\xe1?'
tRp3458
g11
(g13
S'\x00\x00\x00\x00\x00\x00\x14@'
tRp3459
tp3460
a(S'boston'
(dp3461
S'n_forests'
p3462
I100
sS'n_jobs'
p3463
I-1
sS'weight_extent'
p3464
I0
sS'n_trees'
p3465
I1
sS'k'
I6
sS'n_features_to_predict'
p3466
F0.29999999999999999
sS'kmeans_type'
p3467
S'squishy'
p3468
sS'max_depth'
p3469
I6
sg11
(g13
S'\x03\xea\xbf\t\x9b\xb4\xde?'
tRp3470
g11
(g13
S'\x00\x00\x00\x00\x00\x00\x18@'
tRp3471
tp3472
a(S'boston'
(dp3473
S'n_forests'
p3474
I100
sS'n_jobs'
p3475
I-1
sS'weight_extent'
p3476
I0
sS'n_trees'
p3477
I1
sS'k'
I6
sS'n_features_to_predict'
p3478
F0.29999999999999999
sS'kmeans_type'
p3479
S'normal'
p3480
sS'max_depth'
p3481
I6
sg11
(g13
S'+_\x01S\x95\xb6\xd9?'
tRp3482
g11
(g13
S'\x00\x00\x00\x00\x00\x00\x18@'
tRp3483
tp3484
a(S'diabetes'
(dp3485
S'n_forests'
p3486
I100
sS'n_jobs'
p3487
I-1
sS'weight_extent'
p3488
I0
sS'n_trees'
p3489
I1
sS'k'
I6
sS'n_features_to_predict'
p3490
F0.29999999999999999
sS'kmeans_type'
p3491
S'squishy'
p3492
sS'max_depth'
p3493
I6
sg11
(g13
S'\xba\xf9\x8b\xb6\x0f\x1e\xe3?'
tRp3494
g11
(g13
S'\x00\x00\x00\x00\x00\x00\x18@'
tRp3495
tp3496
a(S'diabetes'
(dp3497
S'n_forests'
p3498
I100
sS'n_jobs'
p3499
I-1
sS'weight_extent'
p3500
I0
sS'n_trees'
p3501
I1
sS'k'
I6
sS'n_features_to_predict'
p3502
F0.29999999999999999
sS'kmeans_type'
p3503
S'normal'
p3504
sS'max_depth'
p3505
I6
sg11
(g13
S'f\xf6\x88{d\x86\xe3?'
tRp3506
g11
(g13
S'\x00\x00\x00\x00\x00\x00\x18@'
tRp3507
tp3508
a(S'iris'
(dp3509
S'n_forests'
p3510
I100
sS'n_jobs'
p3511
I-1
sS'weight_extent'
p3512
I0
sS'n_trees'
p3513
I1
sS'k'
I6
sS'n_features_to_predict'
p3514
F0.29999999999999999
sS'kmeans_type'
p3515
S'squishy'
p3516
sS'max_depth'
p3517
I6
sg11
(g13
S'\x82\xd5\xd5\xebC\x05\xe3?'
tRp3518
g11
(g13
S'\x00\x00\x00\x00\x00\x00\x18@'
tRp3519
tp3520
a(S'iris'
(dp3521
S'n_forests'
p3522
I100
sS'n_jobs'
p3523
I-1
sS'weight_extent'
p3524
I0
sS'n_trees'
p3525
I1
sS'k'
I6
sS'n_features_to_predict'
p3526
F0.29999999999999999
sS'kmeans_type'
p3527
S'normal'
p3528
sS'max_depth'
p3529
I6
sg11
(g13
S'\x07zM\x07\x93]\xe9?'
tRp3530
g11
(g13
S'\x00\x00\x00\x00\x00\x00\x16@'
tRp3531
tp3532
a(S'breast_cancer'
(dp3533
S'n_forests'
p3534
I100
sS'n_jobs'
p3535
I-1
sS'weight_extent'
p3536
I0
sS'n_trees'
p3537
I1
sS'k'
I6
sS'n_features_to_predict'
p3538
F0.29999999999999999
sS'kmeans_type'
p3539
S'squishy'
p3540
sS'max_depth'
p3541
I6
sg11
(g13
S'\xe2\xa1O.\x9a\xca\xe2?'
tRp3542
g11
(g13
S'\x00\x00\x00\x00\x00\x00\x18@'
tRp3543
tp3544
a(S'breast_cancer'
(dp3545
S'n_forests'
p3546
I100
sS'n_jobs'
p3547
I-1
sS'weight_extent'
p3548
I0
sS'n_trees'
p3549
I1
sS'k'
I6
sS'n_features_to_predict'
p3550
F0.29999999999999999
sS'kmeans_type'
p3551
S'normal'
p3552
sS'max_depth'
p3553
I6
sg11
(g13
S'\xdf\xf1\xbe\xe62\xd1\xe3?'
tRp3554
g11
(g13
S'\x00\x00\x00\x00\x00\x00\x18@'
tRp3555
tp3556
a(S'boston'
(dp3557
S'n_forests'
p3558
I100
sS'n_jobs'
p3559
I-1
sS'weight_extent'
p3560
I0
sS'n_trees'
p3561
I1
sS'k'
I6
sS'n_features_to_predict'
p3562
F0.5
sS'kmeans_type'
p3563
S'squishy'
p3564
sS'max_depth'
p3565
I6
sg11
(g13
S'\xe6Y\x93\xd42\x00\xe2?'
tRp3566
g11
(g13
S'\x00\x00\x00\x00\x00\x00\x18@'
tRp3567
tp3568
a(S'boston'
(dp3569
S'n_forests'
p3570
I100
sS'n_jobs'
p3571
I-1
sS'weight_extent'
p3572
I0
sS'n_trees'
p3573
I1
sS'k'
I6
sS'n_features_to_predict'
p3574
F0.5
sS'kmeans_type'
p3575
S'normal'
p3576
sS'max_depth'
p3577
I6
sg11
(g13
S'\x9d}\x16\xc3tK\xdd?'
tRp3578
g11
(g13
S'\x00\x00\x00\x00\x00\x00\x18@'
tRp3579
tp3580
a(S'diabetes'
(dp3581
S'n_forests'
p3582
I100
sS'n_jobs'
p3583
I-1
sS'weight_extent'
p3584
I0
sS'n_trees'
p3585
I1
sS'k'
I6
sS'n_features_to_predict'
p3586
F0.5
sS'kmeans_type'
p3587
S'squishy'
p3588
sS'max_depth'
p3589
I6
sg11
(g13
S'\xf9\xa2\x1a_\x05U\xe5?'
tRp3590
g11
(g13
S'\x00\x00\x00\x00\x00\x00\x18@'
tRp3591
tp3592
a(S'diabetes'
(dp3593
S'n_forests'
p3594
I100
sS'n_jobs'
p3595
I-1
sS'weight_extent'
p3596
I0
sS'n_trees'
p3597
I1
sS'k'
I6
sS'n_features_to_predict'
p3598
F0.5
sS'kmeans_type'
p3599
S'normal'
p3600
sS'max_depth'
p3601
I6
sg11
(g13
S'\xcc\x85\xfd\xc5\xb6\xa4\xe3?'
tRp3602
g11
(g13
S'\x00\x00\x00\x00\x00\x00\x18@'
tRp3603
tp3604
a(S'iris'
(dp3605
S'n_forests'
p3606
I100
sS'n_jobs'
p3607
I-1
sS'weight_extent'
p3608
I0
sS'n_trees'
p3609
I1
sS'k'
I6
sS'n_features_to_predict'
p3610
F0.5
sS'kmeans_type'
p3611
S'squishy'
p3612
sS'max_depth'
p3613
I6
sg11
(g13
S'\x9c\xacV\xe9$N\xe4?'
tRp3614
g11
(g13
S'\x00\x00\x00\x00\x00\x00\x17@'
tRp3615
tp3616
a(S'iris'
(dp3617
S'n_forests'
p3618
I100
sS'n_jobs'
p3619
I-1
sS'weight_extent'
p3620
I0
sS'n_trees'
p3621
I1
sS'k'
I6
sS'n_features_to_predict'
p3622
F0.5
sS'kmeans_type'
p3623
S'normal'
p3624
sS'max_depth'
p3625
I6
sg11
(g13
S'\x91+\xc6\x88Fs\xe5?'
tRp3626
g11
(g13
S'\x00\x00\x00\x00\x00\x00\x18@'
tRp3627
tp3628
a(S'breast_cancer'
(dp3629
S'n_forests'
p3630
I100
sS'n_jobs'
p3631
I-1
sS'weight_extent'
p3632
I0
sS'n_trees'
p3633
I1
sS'k'
I6
sS'n_features_to_predict'
p3634
F0.5
sS'kmeans_type'
p3635
S'squishy'
p3636
sS'max_depth'
p3637
I6
sg11
(g13
S'\xbdJa\xddiU\xe1?'
tRp3638
g11
(g13
S'\x00\x00\x00\x00\x00\x00\x18@'
tRp3639
tp3640
a(S'breast_cancer'
(dp3641
S'n_forests'
p3642
I100
sS'n_jobs'
p3643
I-1
sS'weight_extent'
p3644
I0
sS'n_trees'
p3645
I1
sS'k'
I6
sS'n_features_to_predict'
p3646
F0.5
sS'kmeans_type'
p3647
S'normal'
p3648
sS'max_depth'
p3649
I6
sg11
(g13
S'\x7f\x12\x0c\xee3\x92\xe1?'
tRp3650
g11
(g13
S'\x00\x00\x00\x00\x00\x00\x18@'
tRp3651
tp3652
a(S'boston'
(dp3653
S'n_forests'
p3654
I100
sS'n_jobs'
p3655
I-1
sS'weight_extent'
p3656
I0
sS'n_trees'
p3657
I1
sS'k'
I8
sS'n_features_to_predict'
p3658
F0.29999999999999999
sS'kmeans_type'
p3659
S'squishy'
p3660
sS'max_depth'
p3661
I6
sg11
(g13
S'\xce\xe6\x8d]3p\xdf?'
tRp3662
g11
(g13
S'\x00\x00\x00\x00\x00\x00 @'
tRp3663
tp3664
a(S'boston'
(dp3665
S'n_forests'
p3666
I100
sS'n_jobs'
p3667
I-1
sS'weight_extent'
p3668
I0
sS'n_trees'
p3669
I1
sS'k'
I8
sS'n_features_to_predict'
p3670
F0.29999999999999999
sS'kmeans_type'
p3671
S'normal'
p3672
sS'max_depth'
p3673
I6
sg11
(g13
S'\x1bmCd[q\xda?'
tRp3674
g11
(g13
S'\x00\x00\x00\x00\x00\x00 @'
tRp3675
tp3676
a(S'diabetes'
(dp3677
S'n_forests'
p3678
I100
sS'n_jobs'
p3679
I-1
sS'weight_extent'
p3680
I0
sS'n_trees'
p3681
I1
sS'k'
I8
sS'n_features_to_predict'
p3682
F0.29999999999999999
sS'kmeans_type'
p3683
S'squishy'
p3684
sS'max_depth'
p3685
I6
sg11
(g13
S'\xdab\xdc\x9631\xe3?'
tRp3686
g11
(g13
S'\x00\x00\x00\x00\x00\x00 @'
tRp3687
tp3688
a(S'diabetes'
(dp3689
S'n_forests'
p3690
I100
sS'n_jobs'
p3691
I-1
sS'weight_extent'
p3692
I0
sS'n_trees'
p3693
I1
sS'k'
I8
sS'n_features_to_predict'
p3694
F0.29999999999999999
sS'kmeans_type'
p3695
S'normal'
p3696
sS'max_depth'
p3697
I6
sg11
(g13
S'(\x02%\xe0B\xbb\xe2?'
tRp3698
g11
(g13
S'\x00\x00\x00\x00\x00\x00 @'
tRp3699
tp3700
a(S'iris'
(dp3701
S'n_forests'
p3702
I100
sS'n_jobs'
p3703
I-1
sS'weight_extent'
p3704
I0
sS'n_trees'
p3705
I1
sS'k'
I8
sS'n_features_to_predict'
p3706
F0.29999999999999999
sS'kmeans_type'
p3707
S'squishy'
p3708
sS'max_depth'
p3709
I6
sg11
(g13
S'\x04\x02\x9f\x98Nj\xe4?'
tRp3710
g11
(g13
S'\x00\x00\x00\x00\x00\x00 @'
tRp3711
tp3712
a(S'iris'
(dp3713
S'n_forests'
p3714
I100
sS'n_jobs'
p3715
I-1
sS'weight_extent'
p3716
I0
sS'n_trees'
p3717
I1
sS'k'
I8
sS'n_features_to_predict'
p3718
F0.29999999999999999
sS'kmeans_type'
p3719
S'normal'
p3720
sS'max_depth'
p3721
I6
sg11
(g13
S'2\xef\xc6\xe9t\xc0\xe1?'
tRp3722
g11
(g13
S'\x00\x00\x00\x00\x00\x00\x1f@'
tRp3723
tp3724
a(S'breast_cancer'
(dp3725
S'n_forests'
p3726
I100
sS'n_jobs'
p3727
I-1
sS'weight_extent'
p3728
I0
sS'n_trees'
p3729
I1
sS'k'
I8
sS'n_features_to_predict'
p3730
F0.29999999999999999
sS'kmeans_type'
p3731
S'squishy'
p3732
sS'max_depth'
p3733
I6
sg11
(g13
S'\xd7J\xfa~\x16^\xe2?'
tRp3734
g11
(g13
S'\x00\x00\x00\x00\x00\x00 @'
tRp3735
tp3736
a(S'breast_cancer'
(dp3737
S'n_forests'
p3738
I100
sS'n_jobs'
p3739
I-1
sS'weight_extent'
p3740
I0
sS'n_trees'
p3741
I1
sS'k'
I8
sS'n_features_to_predict'
p3742
F0.29999999999999999
sS'kmeans_type'
p3743
S'normal'
p3744
sS'max_depth'
p3745
I6
sg11
(g13
S'\x08\xe7h%w\x8d\xde?'
tRp3746
g11
(g13
S'\x00\x00\x00\x00\x00\x00 @'
tRp3747
tp3748
a(S'boston'
(dp3749
S'n_forests'
p3750
I100
sS'n_jobs'
p3751
I-1
sS'weight_extent'
p3752
I0
sS'n_trees'
p3753
I1
sS'k'
I8
sS'n_features_to_predict'
p3754
F0.5
sS'kmeans_type'
p3755
S'squishy'
p3756
sS'max_depth'
p3757
I6
sg11
(g13
S'\xa2\xcd\xb6\xe2\x0c\xce\xd8?'
tRp3758
g11
(g13
S'\x00\x00\x00\x00\x00\x00 @'
tRp3759
tp3760
a(S'boston'
(dp3761
S'n_forests'
p3762
I100
sS'n_jobs'
p3763
I-1
sS'weight_extent'
p3764
I0
sS'n_trees'
p3765
I1
sS'k'
I8
sS'n_features_to_predict'
p3766
F0.5
sS'kmeans_type'
p3767
S'normal'
p3768
sS'max_depth'
p3769
I6
sg11
(g13
S'\xd0\x14\x11\x8a\xca$\xdb?'
tRp3770
g11
(g13
S'\x9a\x99\x99\x99\x99\x99\x1f@'
tRp3771
tp3772
a(S'diabetes'
(dp3773
S'n_forests'
p3774
I100
sS'n_jobs'
p3775
I-1
sS'weight_extent'
p3776
I0
sS'n_trees'
p3777
I1
sS'k'
I8
sS'n_features_to_predict'
p3778
F0.5
sS'kmeans_type'
p3779
S'squishy'
p3780
sS'max_depth'
p3781
I6
sg11
(g13
S'\xe2e\xf2\xb2`\xa2\xe2?'
tRp3782
g11
(g13
S'\x00\x00\x00\x00\x00\x00 @'
tRp3783
tp3784
a(S'diabetes'
(dp3785
S'n_forests'
p3786
I100
sS'n_jobs'
p3787
I-1
sS'weight_extent'
p3788
I0
sS'n_trees'
p3789
I1
sS'k'
I8
sS'n_features_to_predict'
p3790
F0.5
sS'kmeans_type'
p3791
S'normal'
p3792
sS'max_depth'
p3793
I6
sg11
(g13
S'\x9aO\xba\n\x86\x01\xe3?'
tRp3794
g11
(g13
S'\x00\x00\x00\x00\x00\x00 @'
tRp3795
tp3796
a(S'iris'
(dp3797
S'n_forests'
p3798
I100
sS'n_jobs'
p3799
I-1
sS'weight_extent'
p3800
I0
sS'n_trees'
p3801
I1
sS'k'
I8
sS'n_features_to_predict'
p3802
F0.5
sS'kmeans_type'
p3803
S'squishy'
p3804
sS'max_depth'
p3805
I6
sg11
(g13
S'\x92\xe7l\xf7\x1f\xbc\xe2?'
tRp3806
g11
(g13
S'\x00\x00\x00\x00\x00\x00\x1f@'
tRp3807
tp3808
a(S'iris'
(dp3809
S'n_forests'
p3810
I100
sS'n_jobs'
p3811
I-1
sS'weight_extent'
p3812
I0
sS'n_trees'
p3813
I1
sS'k'
I8
sS'n_features_to_predict'
p3814
F0.5
sS'kmeans_type'
p3815
S'normal'
p3816
sS'max_depth'
p3817
I6
sg11
(g13
S'\x1b\xf7\xf5%lT\xe4?'
tRp3818
g11
(g13
S'\x00\x00\x00\x00\x00\x00\x1e@'
tRp3819
tp3820
a(S'breast_cancer'
(dp3821
S'n_forests'
p3822
I100
sS'n_jobs'
p3823
I-1
sS'weight_extent'
p3824
I0
sS'n_trees'
p3825
I1
sS'k'
I8
sS'n_features_to_predict'
p3826
F0.5
sS'kmeans_type'
p3827
S'squishy'
p3828
sS'max_depth'
p3829
I6
sg11
(g13
S'c\xe5\x00\xbf;]\xe2?'
tRp3830
g11
(g13
S'\x00\x00\x00\x00\x00\x00 @'
tRp3831
tp3832
a(S'breast_cancer'
(dp3833
S'n_forests'
p3834
I100
sS'n_jobs'
p3835
I-1
sS'weight_extent'
p3836
I0
sS'n_trees'
p3837
I1
sS'k'
I8
sS'n_features_to_predict'
p3838
F0.5
sS'kmeans_type'
p3839
S'normal'
p3840
sS'max_depth'
p3841
I6
sg11
(g13
S'"SM5y\xeb\xe0?'
tRp3842
g11
(g13
S'\x00\x00\x00\x00\x00\x00 @'
tRp3843
tp3844
a(S'boston'
(dp3845
S'n_forests'
p3846
I100
sS'n_jobs'
p3847
I-1
sS'weight_extent'
p3848
I0
sS'n_trees'
p3849
I1
sS'k'
I10
sS'n_features_to_predict'
p3850
F0.29999999999999999
sS'kmeans_type'
p3851
S'squishy'
p3852
sS'max_depth'
p3853
I6
sg11
(g13
S'Fph]n\x17\xdb?'
tRp3854
g11
(g13
S'\xcd\xcc\xcc\xcc\xcc\xcc#@'
tRp3855
tp3856
a(S'boston'
(dp3857
S'n_forests'
p3858
I100
sS'n_jobs'
p3859
I-1
sS'weight_extent'
p3860
I0
sS'n_trees'
p3861
I1
sS'k'
I10
sS'n_features_to_predict'
p3862
F0.29999999999999999
sS'kmeans_type'
p3863
S'normal'
p3864
sS'max_depth'
p3865
I6
sg11
(g13
S'\xf2y\xd0\x97\xe1S\xe1?'
tRp3866
g11
(g13
S'\x9a\x99\x99\x99\x99\x99#@'
tRp3867
tp3868
a(S'diabetes'
(dp3869
S'n_forests'
p3870
I100
sS'n_jobs'
p3871
I-1
sS'weight_extent'
p3872
I0
sS'n_trees'
p3873
I1
sS'k'
I10
sS'n_features_to_predict'
p3874
F0.29999999999999999
sS'kmeans_type'
p3875
S'squishy'
p3876
sS'max_depth'
p3877
I6
sg11
(g13
S'_.\nx\xd9\x07\xe2?'
tRp3878
g11
(g13
S'\x00\x00\x00\x00\x00\x00$@'
tRp3879
tp3880
a(S'diabetes'
(dp3881
S'n_forests'
p3882
I100
sS'n_jobs'
p3883
I-1
sS'weight_extent'
p3884
I0
sS'n_trees'
p3885
I1
sS'k'
I10
sS'n_features_to_predict'
p3886
F0.29999999999999999
sS'kmeans_type'
p3887
S'normal'
p3888
sS'max_depth'
p3889
I6
sg11
(g13
S'^\x9d\x99Y\xc5\xcb\xe2?'
tRp3890
g11
(g13
S'\x00\x00\x00\x00\x00\x00$@'
tRp3891
tp3892
a(S'iris'
(dp3893
S'n_forests'
p3894
I100
sS'n_jobs'
p3895
I-1
sS'weight_extent'
p3896
I0
sS'n_trees'
p3897
I1
sS'k'
I10
sS'n_features_to_predict'
p3898
F0.29999999999999999
sS'kmeans_type'
p3899
S'squishy'
p3900
sS'max_depth'
p3901
I6
sg11
(g13
S'\xea\xc0\xff\xd2\xf1\x17\xd4?'
tRp3902
g11
(g13
S'\x00\x00\x00\x00\x00\x00$@'
tRp3903
tp3904
a(S'iris'
(dp3905
S'n_forests'
p3906
I100
sS'n_jobs'
p3907
I-1
sS'weight_extent'
p3908
I0
sS'n_trees'
p3909
I1
sS'k'
I10
sS'n_features_to_predict'
p3910
F0.29999999999999999
sS'kmeans_type'
p3911
S'normal'
p3912
sS'max_depth'
p3913
I6
sg11
(g13
S'\xca\xc4\xfa\x0bd`\xe3?'
tRp3914
g11
(g13
S'\x00\x00\x00\x00\x00\x00$@'
tRp3915
tp3916
a(S'breast_cancer'
(dp3917
S'n_forests'
p3918
I100
sS'n_jobs'
p3919
I-1
sS'weight_extent'
p3920
I0
sS'n_trees'
p3921
I1
sS'k'
I10
sS'n_features_to_predict'
p3922
F0.29999999999999999
sS'kmeans_type'
p3923
S'squishy'
p3924
sS'max_depth'
p3925
I6
sg11
(g13
S'\xcd\xb8f\r\xab\xfb\xe1?'
tRp3926
g11
(g13
S'\x00\x00\x00\x00\x00\x00$@'
tRp3927
tp3928
a(S'breast_cancer'
(dp3929
S'n_forests'
p3930
I100
sS'n_jobs'
p3931
I-1
sS'weight_extent'
p3932
I0
sS'n_trees'
p3933
I1
sS'k'
I10
sS'n_features_to_predict'
p3934
F0.29999999999999999
sS'kmeans_type'
p3935
S'normal'
p3936
sS'max_depth'
p3937
I6
sg11
(g13
S'\xa6\r\xf8KQ\xb3\xdc?'
tRp3938
g11
(g13
S'\x00\x00\x00\x00\x00\x00$@'
tRp3939
tp3940
a(S'boston'
(dp3941
S'n_forests'
p3942
I100
sS'n_jobs'
p3943
I-1
sS'weight_extent'
p3944
I0
sS'n_trees'
p3945
I1
sS'k'
I10
sS'n_features_to_predict'
p3946
F0.5
sS'kmeans_type'
p3947
S'squishy'
p3948
sS'max_depth'
p3949
I6
sg11
(g13
S'\x85P\x95\xde\xe0L\xdc?'
tRp3950
g11
(g13
S'\x00\x00\x00\x00\x00\x00$@'
tRp3951
tp3952
a(S'boston'
(dp3953
S'n_forests'
p3954
I100
sS'n_jobs'
p3955
I-1
sS'weight_extent'
p3956
I0
sS'n_trees'
p3957
I1
sS'k'
I10
sS'n_features_to_predict'
p3958
F0.5
sS'kmeans_type'
p3959
S'normal'
p3960
sS'max_depth'
p3961
I6
sg11
(g13
S'\x1d\x91_\xd9\x9c\x03\xdc?'
tRp3962
g11
(g13
S'\x00\x00\x00\x00\x00\x00$@'
tRp3963
tp3964
a(S'diabetes'
(dp3965
S'n_forests'
p3966
I100
sS'n_jobs'
p3967
I-1
sS'weight_extent'
p3968
I0
sS'n_trees'
p3969
I1
sS'k'
I10
sS'n_features_to_predict'
p3970
F0.5
sS'kmeans_type'
p3971
S'squishy'
p3972
sS'max_depth'
p3973
I6
sg11
(g13
S'9\x86X\x03\xa5`\xe2?'
tRp3974
g11
(g13
S'\x00\x00\x00\x00\x00\x00$@'
tRp3975
tp3976
a(S'diabetes'
(dp3977
S'n_forests'
p3978
I100
sS'n_jobs'
p3979
I-1
sS'weight_extent'
p3980
I0
sS'n_trees'
p3981
I1
sS'k'
I10
sS'n_features_to_predict'
p3982
F0.5
sS'kmeans_type'
p3983
S'normal'
p3984
sS'max_depth'
p3985
I6
sg11
(g13
S'j\xd7\x8d/!G\xe2?'
tRp3986
g11
(g13
S'\x00\x00\x00\x00\x00\x00$@'
tRp3987
tp3988
a(S'iris'
(dp3989
S'n_forests'
p3990
I100
sS'n_jobs'
p3991
I-1
sS'weight_extent'
p3992
I0
sS'n_trees'
p3993
I1
sS'k'
I10
sS'n_features_to_predict'
p3994
F0.5
sS'kmeans_type'
p3995
S'squishy'
p3996
sS'max_depth'
p3997
I6
sg11
(g13
S'>\x9f^\x89[\x19\xe1?'
tRp3998
g11
(g13
S'\x00\x00\x00\x00\x00\x00$@'
tRp3999
tp4000
a(S'iris'
(dp4001
S'n_forests'
p4002
I100
sS'n_jobs'
p4003
I-1
sS'weight_extent'
p4004
I0
sS'n_trees'
p4005
I1
sS'k'
I10
sS'n_features_to_predict'
p4006
F0.5
sS'kmeans_type'
p4007
S'normal'
p4008
sS'max_depth'
p4009
I6
sg11
(g13
S'\xd26<\x02\xc0\xce\xde?'
tRp4010
g11
(g13
S'\x00\x00\x00\x00\x00\x00#@'
tRp4011
tp4012
a(S'breast_cancer'
(dp4013
S'n_forests'
p4014
I100
sS'n_jobs'
p4015
I-1
sS'weight_extent'
p4016
I0
sS'n_trees'
p4017
I1
sS'k'
I10
sS'n_features_to_predict'
p4018
F0.5
sS'kmeans_type'
p4019
S'squishy'
p4020
sS'max_depth'
p4021
I6
sg11
(g13
S'!\xf9n\xc3\xd3<\xe0?'
tRp4022
g11
(g13
S'\x00\x00\x00\x00\x00\x00$@'
tRp4023
tp4024
a(S'breast_cancer'
(dp4025
S'n_forests'
p4026
I100
sS'n_jobs'
p4027
I-1
sS'weight_extent'
p4028
I0
sS'n_trees'
p4029
I1
sS'k'
I10
sS'n_features_to_predict'
p4030
F0.5
sS'kmeans_type'
p4031
S'normal'
p4032
sS'max_depth'
p4033
I6
sg11
(g13
S'\xd6\x10,6j\x16\xdc?'
tRp4034
g11
(g13
S'\x00\x00\x00\x00\x00\x00$@'
tRp4035
tp4036
a.