(lp1
(S'breast_cancer'
(dp2
S'n_forests'
p3
I100
sS'n_jobs'
p4
I-1
sS'weight_extent'
p5
I0
sS'n_trees'
p6
I1
sS'k'
I2
sS'n_features_to_predict'
p7
F0.29999999999999999
sS'kmeans_type'
p8
S'normal'
p9
sS'max_depth'
p10
I6
scnumpy.core.multiarray
scalar
p11
(cnumpy
dtype
p12
(S'f8'
I0
I1
tRp13
(I3
S'<'
NNNI-1
I-1
I0
tbS'f8\x9e\xef\xcf9\xe7?'
tRp14
g11
(g13
S'\x00\x00\x00\x00\x00\x00\x00@'
tRp15
tp16
a(S'breast_cancer'
(dp17
S'n_forests'
p18
I100
sS'n_jobs'
p19
I-1
sS'weight_extent'
p20
I0
sS'n_trees'
p21
I1
sS'k'
I3
sS'n_features_to_predict'
p22
F0.5
sS'kmeans_type'
p23
S'normal'
p24
sS'max_depth'
p25
I6
sg11
(g13
S'\xad-\xbf\x9dCT\xe4?'
tRp26
g11
(g13
S'\x00\x00\x00\x00\x00\x00\x08@'
tRp27
tp28
a(S'breast_cancer'
(dp29
S'n_forests'
p30
I100
sS'n_jobs'
p31
I-1
sS'weight_extent'
p32
I0
sS'n_trees'
p33
I1
sS'k'
I4
sS'n_features_to_predict'
p34
F0.5
sS'kmeans_type'
p35
S'normal'
p36
sS'max_depth'
p37
I5
sg11
(g13
S'\xfe"\xd5\xf0f\xbc\xe1?'
tRp38
g11
(g13
S'\x00\x00\x00\x00\x00\x00\x10@'
tRp39
tp40
a(S'breast_cancer'
(dp41
S'n_forests'
p42
I100
sS'n_jobs'
p43
I-1
sS'weight_extent'
p44
I0
sS'n_trees'
p45
I1
sS'k'
I5
sS'n_features_to_predict'
p46
F0.5
sS'kmeans_type'
p47
S'normal'
p48
sS'max_depth'
p49
I3
sg11
(g13
S'\xc3=l:Y\xb5\xe0?'
tRp50
g11
(g13
S'\x00\x00\x00\x00\x00\x00\x14@'
tRp51
tp52
a(S'breast_cancer'
(dp53
S'n_forests'
p54
I100
sS'n_jobs'
p55
I-1
sS'weight_extent'
p56
I0
sS'n_trees'
p57
I1
sS'k'
I6
sS'n_features_to_predict'
p58
F0.29999999999999999
sS'kmeans_type'
p59
S'squishy'
p60
sS'max_depth'
p61
I3
sg11
(g13
S'\xe5\xd9\x0f\xfd\xfaO\xe0?'
tRp62
g11
(g13
S'\x00\x00\x00\x00\x00\x00\x18@'
tRp63
tp64
a(S'breast_cancer'
(dp65
S'n_forests'
p66
I100
sS'n_jobs'
p67
I-1
sS'weight_extent'
p68
I0
sS'n_trees'
p69
I1
sS'k'
I8
sS'n_features_to_predict'
p70
F0.29999999999999999
sS'kmeans_type'
p71
S'normal'
p72
sS'max_depth'
p73
I5
sg11
(g13
S'\xfa\x07\xf9\x92K\xcf\xde?'
tRp74
g11
(g13
S'\x00\x00\x00\x00\x00\x00 @'
tRp75
tp76
a(S'breast_cancer'
(dp77
S'n_forests'
p78
I100
sS'n_jobs'
p79
I-1
sS'weight_extent'
p80
I0
sS'n_trees'
p81
I1
sS'k'
I10
sS'n_features_to_predict'
p82
F0.29999999999999999
sS'kmeans_type'
p83
S'squishy'
p84
sS'max_depth'
p85
I3
sg11
(g13
S'\xb6?\xbcjI\xca\xdd?'
tRp86
g11
(g13
S'\x9a\x99\x99\x99\x99\x99"@'
tRp87
tp88
a(S'boston'
(dp89
S'n_forests'
p90
I100
sS'n_jobs'
p91
I-1
sS'weight_extent'
p92
I0
sS'n_trees'
p93
I1
sS'k'
I2
sS'n_features_to_predict'
p94
F0.29999999999999999
sS'kmeans_type'
p95
S'squishy'
p96
sS'max_depth'
p97
I3
sg11
(g13
S'\xb0\\k\xe7\x9cc\xe4?'
tRp98
g11
(g13
S'\x00\x00\x00\x00\x00\x00\x00@'
tRp99
tp100
a(S'boston'
(dp101
S'n_forests'
p102
I100
sS'n_jobs'
p103
I-1
sS'weight_extent'
p104
I0
sS'n_trees'
p105
I1
sS'k'
I3
sS'n_features_to_predict'
p106
F0.29999999999999999
sS'kmeans_type'
p107
S'squishy'
p108
sS'max_depth'
p109
I6
sg11
(g13
S'\x01\xa7p\xe8K\xea\xe2?'
tRp110
g11
(g13
S'\x00\x00\x00\x00\x00\x00\x08@'
tRp111
tp112
a(S'boston'
(dp113
S'n_forests'
p114
I100
sS'n_jobs'
p115
I-1
sS'weight_extent'
p116
I0
sS'n_trees'
p117
I1
sS'k'
I4
sS'n_features_to_predict'
p118
F0.29999999999999999
sS'kmeans_type'
p119
S'normal'
p120
sS'max_depth'
p121
I5
sg11
(g13
S'\xa0\xe3\xb9l\x0bG\xe1?'
tRp122
g11
(g13
S'\x00\x00\x00\x00\x00\x00\x10@'
tRp123
tp124
a(S'boston'
(dp125
S'n_forests'
p126
I100
sS'n_jobs'
p127
I-1
sS'weight_extent'
p128
I0
sS'n_trees'
p129
I1
sS'k'
I5
sS'n_features_to_predict'
p130
F0.29999999999999999
sS'kmeans_type'
p131
S'normal'
p132
sS'max_depth'
p133
I3
sg11
(g13
S'\xca\xac1\x92\x90\xf6\xdd?'
tRp134
g11
(g13
S'\x00\x00\x00\x00\x00\x00\x14@'
tRp135
tp136
a(S'boston'
(dp137
S'n_forests'
p138
I100
sS'n_jobs'
p139
I-1
sS'weight_extent'
p140
I0
sS'n_trees'
p141
I1
sS'k'
I6
sS'n_features_to_predict'
p142
F0.29999999999999999
sS'kmeans_type'
p143
S'squishy'
p144
sS'max_depth'
p145
I3
sg11
(g13
S'm\x1e\xf83\xaf(\xde?'
tRp146
g11
(g13
S'\x00\x00\x00\x00\x00\x00\x18@'
tRp147
tp148
a(S'boston'
(dp149
S'n_forests'
p150
I100
sS'n_jobs'
p151
I-1
sS'weight_extent'
p152
I0
sS'n_trees'
p153
I1
sS'k'
I8
sS'n_features_to_predict'
p154
F0.29999999999999999
sS'kmeans_type'
p155
S'normal'
p156
sS'max_depth'
p157
I3
sg11
(g13
S'\x10p\xd9>^\xde\xdc?'
tRp158
g11
(g13
S'\x00\x00\x00\x00\x00\x00 @'
tRp159
tp160
a(S'boston'
(dp161
S'n_forests'
p162
I100
sS'n_jobs'
p163
I-1
sS'weight_extent'
p164
I0
sS'n_trees'
p165
I1
sS'k'
I10
sS'n_features_to_predict'
p166
F0.5
sS'kmeans_type'
p167
S'normal'
p168
sS'max_depth'
p169
I3
sg11
(g13
S'\rz\x84\xf1\x86\x9f\xdb?'
tRp170
g11
(g13
S'\x00\x00\x00\x00\x00\x00!@'
tRp171
tp172
a(S'iris'
(dp173
S'n_forests'
p174
I100
sS'n_jobs'
p175
I-1
sS'weight_extent'
p176
I0
sS'n_trees'
p177
I1
sS'k'
I2
sS'n_features_to_predict'
p178
F0.5
sS'kmeans_type'
p179
S'normal'
p180
sS'max_depth'
p181
I3
sg11
(g13
S'\xae\xb5\xb6\xac\nx\xe2?'
tRp182
g11
(g13
S'\x00\x00\x00\x00\x00\x00\x00@'
tRp183
tp184
a(S'iris'
(dp185
S'n_forests'
p186
I100
sS'n_jobs'
p187
I-1
sS'weight_extent'
p188
I0
sS'n_trees'
p189
I1
sS'k'
I3
sS'n_features_to_predict'
p190
F0.29999999999999999
sS'kmeans_type'
p191
S'squishy'
p192
sS'max_depth'
p193
I3
sg11
(g13
S'\xeb\x86\xf4\x16\x82%\xd1?'
tRp194
g11
(g13
S'\x00\x00\x00\x00\x00\x00\x08@'
tRp195
tp196
a(S'iris'
(dp197
S'n_forests'
p198
I100
sS'n_jobs'
p199
I-1
sS'weight_extent'
p200
I0
sS'n_trees'
p201
I1
sS'k'
I4
sS'n_features_to_predict'
p202
F0.29999999999999999
sS'kmeans_type'
p203
S'squishy'
p204
sS'max_depth'
p205
I3
sg11
(g13
S'\xa7\xeb\xb9=\x9b\x1f\xce?'
tRp206
g11
(g13
S'\x00\x00\x00\x00\x00\x00\x10@'
tRp207
tp208
a(S'iris'
(dp209
S'n_forests'
p210
I100
sS'n_jobs'
p211
I-1
sS'weight_extent'
p212
I0
sS'n_trees'
p213
I1
sS'k'
I5
sS'n_features_to_predict'
p214
F0.5
sS'kmeans_type'
p215
S'squishy'
p216
sS'max_depth'
p217
I3
sg11
(g13
S'\xf4\xbd\x94\xfd\xdc>\xcc?'
tRp218
g11
(g13
S'\x00\x00\x00\x00\x00\x00\x14@'
tRp219
tp220
a(S'iris'
(dp221
S'n_forests'
p222
I100
sS'n_jobs'
p223
I-1
sS'weight_extent'
p224
I0
sS'n_trees'
p225
I1
sS'k'
I6
sS'n_features_to_predict'
p226
F0.5
sS'kmeans_type'
p227
S'squishy'
p228
sS'max_depth'
p229
I3
sg11
(g13
S'\xf0\xc5\xf7P\x9f{\xc9?'
tRp230
g11
(g13
S'\x00\x00\x00\x00\x00\x00\x18@'
tRp231
tp232
a(S'iris'
(dp233
S'n_forests'
p234
I100
sS'n_jobs'
p235
I-1
sS'weight_extent'
p236
I0
sS'n_trees'
p237
I1
sS'k'
I8
sS'n_features_to_predict'
p238
F0.29999999999999999
sS'kmeans_type'
p239
S'normal'
p240
sS'max_depth'
p241
I3
sg11
(g13
S'\x9c\xa7a]\xd0\xa0\xc9?'
tRp242
g11
(g13
S'\x00\x00\x00\x00\x00\x00 @'
tRp243
tp244
a(S'iris'
(dp245
S'n_forests'
p246
I100
sS'n_jobs'
p247
I-1
sS'weight_extent'
p248
I0
sS'n_trees'
p249
I1
sS'k'
I10
sS'n_features_to_predict'
p250
F0.29999999999999999
sS'kmeans_type'
p251
S'normal'
p252
sS'max_depth'
p253
I3
sg11
(g13
S'\xa1\x1e\x9fe\x112\xca?'
tRp254
g11
(g13
S'\x00\x00\x00\x00\x00\x80#@'
tRp255
tp256
a(S'diabetes'
(dp257
S'n_forests'
p258
I100
sS'n_jobs'
p259
I-1
sS'weight_extent'
p260
I0
sS'n_trees'
p261
I1
sS'k'
I2
sS'n_features_to_predict'
p262
F0.5
sS'kmeans_type'
p263
S'squishy'
p264
sS'max_depth'
p265
I6
sg11
(g13
S'\x03!x.bi\xe8?'
tRp266
g11
(g13
S'\x00\x00\x00\x00\x00\x00\x00@'
tRp267
tp268
a(S'diabetes'
(dp269
S'n_forests'
p270
I100
sS'n_jobs'
p271
I-1
sS'weight_extent'
p272
I0
sS'n_trees'
p273
I1
sS'k'
I3
sS'n_features_to_predict'
p274
F0.5
sS'kmeans_type'
p275
S'normal'
p276
sS'max_depth'
p277
I3
sg11
(g13
S'c\x1b\xc2\xf3\x96\x94\xe6?'
tRp278
g11
(g13
S'\x00\x00\x00\x00\x00\x00\x08@'
tRp279
tp280
a(S'diabetes'
(dp281
S'n_forests'
p282
I100
sS'n_jobs'
p283
I-1
sS'weight_extent'
p284
I0
sS'n_trees'
p285
I1
sS'k'
I4
sS'n_features_to_predict'
p286
F0.5
sS'kmeans_type'
p287
S'squishy'
p288
sS'max_depth'
p289
I3
sg11
(g13
S'\n\xa7\x9cEd\xc4\xe4?'
tRp290
g11
(g13
S'\x00\x00\x00\x00\x00\x00\x10@'
tRp291
tp292
a(S'diabetes'
(dp293
S'n_forests'
p294
I100
sS'n_jobs'
p295
I-1
sS'weight_extent'
p296
I0
sS'n_trees'
p297
I1
sS'k'
I5
sS'n_features_to_predict'
p298
F0.5
sS'kmeans_type'
p299
S'squishy'
p300
sS'max_depth'
p301
I3
sg11
(g13
S'\x1d\x12j\x13R\xf0\xe3?'
tRp302
g11
(g13
S'\x00\x00\x00\x00\x00\x00\x14@'
tRp303
tp304
a(S'diabetes'
(dp305
S'n_forests'
p306
I100
sS'n_jobs'
p307
I-1
sS'weight_extent'
p308
I0
sS'n_trees'
p309
I1
sS'k'
I6
sS'n_features_to_predict'
p310
F0.29999999999999999
sS'kmeans_type'
p311
S'squishy'
p312
sS'max_depth'
p313
I6
sg11
(g13
S'\x11d\xbd#}J\xe4?'
tRp314
g11
(g13
S'\x00\x00\x00\x00\x00\x00\x18@'
tRp315
tp316
a(S'diabetes'
(dp317
S'n_forests'
p318
I100
sS'n_jobs'
p319
I-1
sS'weight_extent'
p320
I0
sS'n_trees'
p321
I1
sS'k'
I8
sS'n_features_to_predict'
p322
F0.5
sS'kmeans_type'
p323
S'normal'
p324
sS'max_depth'
p325
I5
sg11
(g13
S'\xb4\rqn\x0f\x05\xe3?'
tRp326
g11
(g13
S'\x00\x00\x00\x00\x00\x00 @'
tRp327
tp328
a(S'diabetes'
(dp329
S'n_forests'
p330
I100
sS'n_jobs'
p331
I-1
sS'weight_extent'
p332
I0
sS'n_trees'
p333
I1
sS'k'
I10
sS'n_features_to_predict'
p334
F0.5
sS'kmeans_type'
p335
S'normal'
p336
sS'max_depth'
p337
I3
sg11
(g13
S'&\x8dF\xbeX\xd9\xe1?'
tRp338
g11
(g13
S'\x00\x00\x00\x00\x00\x00$@'
tRp339
tp340
a.