(lp1
(S'breast_cancer'
(dp2
S'n_forests'
p3
I100
sS'n_jobs'
p4
I-1
sS'weight_extent'
p5
I1
sS'n_trees'
p6
I1
sS'k'
I2
sS'n_features_to_predict'
p7
F0.5
sS'kmeans_type'
p8
S'squishy'
p9
sS'max_depth'
p10
I6
scnumpy.core.multiarray
scalar
p11
(cnumpy
dtype
p12
(S'f8'
I0
I1
tRp13
(I3
S'<'
NNNI-1
I-1
I0
tbS'\xd5\x83\xadJ\x06o\xec?'
tRp14
g11
(g13
S'\x00\x00\x00\x00\x00\x00\x00@'
tRp15
tp16
a(S'breast_cancer'
(dp17
S'n_forests'
p18
I100
sS'n_jobs'
p19
I-1
sS'weight_extent'
p20
F0.5
sS'n_trees'
p21
I1
sS'k'
I3
sS'n_features_to_predict'
p22
F0.5
sS'kmeans_type'
p23
S'squishy'
p24
sS'max_depth'
p25
I6
sg11
(g13
S'+\xd6q\r\x17\xd2\xee?'
tRp26
g11
(g13
S'\xcd\xcc\xcc\xcc\xcc\xcc\x04@'
tRp27
tp28
a(S'breast_cancer'
(dp29
S'n_forests'
p30
I100
sS'n_jobs'
p31
I-1
sS'weight_extent'
p32
I2
sS'n_trees'
p33
I1
sS'k'
I4
sS'n_features_to_predict'
p34
F0.5
sS'kmeans_type'
p35
S'squishy'
p36
sS'max_depth'
p37
I5
sg11
(g13
S'\xa5\x86\x91\xf0h\x94\xe7?'
tRp38
g11
(g13
S'333333\x0b@'
tRp39
tp40
a(S'breast_cancer'
(dp41
S'n_forests'
p42
I100
sS'n_jobs'
p43
I-1
sS'weight_extent'
p44
F0.5
sS'n_trees'
p45
I1
sS'k'
I5
sS'n_features_to_predict'
p46
F0.5
sS'kmeans_type'
p47
S'squishy'
p48
sS'max_depth'
p49
I4
sg11
(g13
S'BNV\x8b\x0f\x84\xef?'
tRp50
g11
(g13
S'\x00\x00\x00\x00\x00\x00\x00@'
tRp51
tp52
a(S'breast_cancer'
(dp53
S'n_forests'
p54
I100
sS'n_jobs'
p55
I-1
sS'weight_extent'
p56
I1
sS'n_trees'
p57
I1
sS'k'
I6
sS'n_features_to_predict'
p58
F0.5
sS'kmeans_type'
p59
S'squishy'
p60
sS'max_depth'
p61
I4
sg11
(g13
S"Er\nj'\xa1\xe6?"
tRp62
g11
(g13
S'\x00\x00\x00\x00\x00\x00\x08@'
tRp63
tp64
a(S'breast_cancer'
(dp65
S'n_forests'
p66
I100
sS'n_jobs'
p67
I-1
sS'weight_extent'
p68
I2
sS'n_trees'
p69
I1
sS'k'
I8
sS'n_features_to_predict'
p70
F0.5
sS'kmeans_type'
p71
S'squishy'
p72
sS'max_depth'
p73
I6
sg11
(g13
S'\xfe\xf2.\x86\xfaC\xeb?'
tRp74
g11
(g13
S'\x9a\x99\x99\x99\x99\x99\t@'
tRp75
tp76
a(S'breast_cancer'
(dp77
S'n_forests'
p78
I100
sS'n_jobs'
p79
I-1
sS'weight_extent'
p80
F0.5
sS'n_trees'
p81
I1
sS'k'
I10
sS'n_features_to_predict'
p82
F0.5
sS'kmeans_type'
p83
S'squishy'
p84
sS'max_depth'
p85
I6
sg11
(g13
S'\xa6\xea\xec\x16(\x02\xef?'
tRp86
g11
(g13
S'ffffff\x12@'
tRp87
tp88
a(S'boston'
(dp89
S'n_forests'
p90
I100
sS'n_jobs'
p91
I-1
sS'weight_extent'
p92
I2
sS'n_trees'
p93
I1
sS'k'
I2
sS'n_features_to_predict'
p94
F0.5
sS'kmeans_type'
p95
S'squishy'
p96
sS'max_depth'
p97
I6
sg11
(g13
S'\xaaf\xe2\xd5\xea\xe5\xea?'
tRp98
g11
(g13
S'\x00\x00\x00\x00\x00\x00\x00@'
tRp99
tp100
a(S'boston'
(dp101
S'n_forests'
p102
I100
sS'n_jobs'
p103
I-1
sS'weight_extent'
p104
I2
sS'n_trees'
p105
I1
sS'k'
I3
sS'n_features_to_predict'
p106
F0.5
sS'kmeans_type'
p107
S'squishy'
p108
sS'max_depth'
p109
I6
sg11
(g13
S'\xd6\x9c\xca\xea7\xdb\xe8?'
tRp110
g11
(g13
S'\x00\x00\x00\x00\x00\x00\x08@'
tRp111
tp112
a(S'boston'
(dp113
S'n_forests'
p114
I100
sS'n_jobs'
p115
I-1
sS'weight_extent'
p116
I2
sS'n_trees'
p117
I1
sS'k'
I4
sS'n_features_to_predict'
p118
F0.5
sS'kmeans_type'
p119
S'squishy'
p120
sS'max_depth'
p121
I5
sg11
(g13
S'~N\x80\x0fh\x88\xe2?'
tRp122
g11
(g13
S'\x00\x00\x00\x00\x00\x00\x10@'
tRp123
tp124
a(S'boston'
(dp125
S'n_forests'
p126
I100
sS'n_jobs'
p127
I-1
sS'weight_extent'
p128
I1
sS'n_trees'
p129
I1
sS'k'
I5
sS'n_features_to_predict'
p130
F0.5
sS'kmeans_type'
p131
S'squishy'
p132
sS'max_depth'
p133
I4
sg11
(g13
S'\x1fL\x1b<7\xf8\xe2?'
tRp134
g11
(g13
S'\x9a\x99\x99\x99\x99\x99\x13@'
tRp135
tp136
a(S'boston'
(dp137
S'n_forests'
p138
I100
sS'n_jobs'
p139
I-1
sS'weight_extent'
p140
I1
sS'n_trees'
p141
I1
sS'k'
I6
sS'n_features_to_predict'
p142
F0.5
sS'kmeans_type'
p143
S'squishy'
p144
sS'max_depth'
p145
I4
sg11
(g13
S'x\x19p\xc2G;\xe0?'
tRp146
g11
(g13
S'333333\x13@'
tRp147
tp148
a(S'boston'
(dp149
S'n_forests'
p150
I100
sS'n_jobs'
p151
I-1
sS'weight_extent'
p152
I2
sS'n_trees'
p153
I1
sS'k'
I8
sS'n_features_to_predict'
p154
F0.5
sS'kmeans_type'
p155
S'squishy'
p156
sS'max_depth'
p157
I6
sg11
(g13
S'\x14:\xe4L\x1d\xba\xe0?'
tRp158
g11
(g13
S'333333\x1f@'
tRp159
tp160
a(S'boston'
(dp161
S'n_forests'
p162
I100
sS'n_jobs'
p163
I-1
sS'weight_extent'
p164
I1
sS'n_trees'
p165
I1
sS'k'
I10
sS'n_features_to_predict'
p166
F0.5
sS'kmeans_type'
p167
S'squishy'
p168
sS'max_depth'
p169
I5
sg11
(g13
S'\xf2\xd0\xaf\xb3Bm\xd9?'
tRp170
g11
(g13
S'\xcd\xcc\xcc\xcc\xcc\xcc!@'
tRp171
tp172
a(S'iris'
(dp173
S'n_forests'
p174
I100
sS'n_jobs'
p175
I-1
sS'weight_extent'
p176
I2
sS'n_trees'
p177
I1
sS'k'
I2
sS'n_features_to_predict'
p178
F0.5
sS'kmeans_type'
p179
S'squishy'
p180
sS'max_depth'
p181
I6
sg11
(g13
S'\x96#\x19\x82\xb6\x81\xe6?'
tRp182
g11
(g13
S'\x00\x00\x00\x00\x00\x00\x00@'
tRp183
tp184
a(S'iris'
(dp185
S'n_forests'
p186
I100
sS'n_jobs'
p187
I-1
sS'weight_extent'
p188
I2
sS'n_trees'
p189
I1
sS'k'
I3
sS'n_features_to_predict'
p190
F0.5
sS'kmeans_type'
p191
S'squishy'
p192
sS'max_depth'
p193
I4
sg11
(g13
S'~e\xb6\xb2\x97\xbd\xd7?'
tRp194
g11
(g13
S'\x00\x00\x00\x00\x00\x00\x08@'
tRp195
tp196
a(S'iris'
(dp197
S'n_forests'
p198
I100
sS'n_jobs'
p199
I-1
sS'weight_extent'
p200
F0.5
sS'n_trees'
p201
I1
sS'k'
I4
sS'n_features_to_predict'
p202
F0.5
sS'kmeans_type'
p203
S'squishy'
p204
sS'max_depth'
p205
I4
sg11
(g13
S'\x19\xeb|\xaetS\xe1?'
tRp206
g11
(g13
S'\x00\x00\x00\x00\x00\x00\x10@'
tRp207
tp208
a(S'iris'
(dp209
S'n_forests'
p210
I100
sS'n_jobs'
p211
I-1
sS'weight_extent'
p212
I1
sS'n_trees'
p213
I1
sS'k'
I5
sS'n_features_to_predict'
p214
F0.5
sS'kmeans_type'
p215
S'squishy'
p216
sS'max_depth'
p217
I4
sg11
(g13
S'\xc5\xdaKz\x9d\xb8\xd3?'
tRp218
g11
(g13
S'\x00\x00\x00\x00\x00\x00\x14@'
tRp219
tp220
a(S'iris'
(dp221
S'n_forests'
p222
I100
sS'n_jobs'
p223
I-1
sS'weight_extent'
p224
I2
sS'n_trees'
p225
I1
sS'k'
I6
sS'n_features_to_predict'
p226
F0.5
sS'kmeans_type'
p227
S'squishy'
p228
sS'max_depth'
p229
I4
sg11
(g13
S'k\x82\x196\x16\xab\xd1?'
tRp230
g11
(g13
S'\x00\x00\x00\x00\x00\x00\x17@'
tRp231
tp232
a(S'iris'
(dp233
S'n_forests'
p234
I100
sS'n_jobs'
p235
I-1
sS'weight_extent'
p236
I1
sS'n_trees'
p237
I1
sS'k'
I8
sS'n_features_to_predict'
p238
F0.5
sS'kmeans_type'
p239
S'squishy'
p240
sS'max_depth'
p241
I4
sg11
(g13
S'F\xea4\xf8\xd9z\xd4?'
tRp242
g11
(g13
S'\x00\x00\x00\x00\x00\x00\x1f@'
tRp243
tp244
a(S'iris'
(dp245
S'n_forests'
p246
I100
sS'n_jobs'
p247
I-1
sS'weight_extent'
p248
I2
sS'n_trees'
p249
I1
sS'k'
I10
sS'n_features_to_predict'
p250
F0.5
sS'kmeans_type'
p251
S'squishy'
p252
sS'max_depth'
p253
I4
sg11
(g13
S'\x91\xd7\xe1!\xb0E\xd0?'
tRp254
g11
(g13
S'\x00\x00\x00\x00\x00\x00"@'
tRp255
tp256
a(S'diabetes'
(dp257
S'n_forests'
p258
I100
sS'n_jobs'
p259
I-1
sS'weight_extent'
p260
I1
sS'n_trees'
p261
I1
sS'k'
I2
sS'n_features_to_predict'
p262
F0.5
sS'kmeans_type'
p263
S'squishy'
p264
sS'max_depth'
p265
I6
sg11
(g13
S'-\xe4\x8c\xbe4\x1a\xed?'
tRp266
g11
(g13
S'\x00\x00\x00\x00\x00\x00\x00@'
tRp267
tp268
a(S'diabetes'
(dp269
S'n_forests'
p270
I100
sS'n_jobs'
p271
I-1
sS'weight_extent'
p272
I2
sS'n_trees'
p273
I1
sS'k'
I3
sS'n_features_to_predict'
p274
F0.5
sS'kmeans_type'
p275
S'squishy'
p276
sS'max_depth'
p277
I6
sg11
(g13
S'\x8e\x81\xb3\x8a*\x19\xee?'
tRp278
g11
(g13
S'\x00\x00\x00\x00\x00\x00\x08@'
tRp279
tp280
a(S'diabetes'
(dp281
S'n_forests'
p282
I100
sS'n_jobs'
p283
I-1
sS'weight_extent'
p284
I2
sS'n_trees'
p285
I1
sS'k'
I4
sS'n_features_to_predict'
p286
F0.5
sS'kmeans_type'
p287
S'squishy'
p288
sS'max_depth'
p289
I4
sg11
(g13
S'"/\xba\x98\x84\xc9\xed?'
tRp290
g11
(g13
S'\xcd\xcc\xcc\xcc\xcc\xcc\x08@'
tRp291
tp292
a(S'diabetes'
(dp293
S'n_forests'
p294
I100
sS'n_jobs'
p295
I-1
sS'weight_extent'
p296
I2
sS'n_trees'
p297
I1
sS'k'
I5
sS'n_features_to_predict'
p298
F0.5
sS'kmeans_type'
p299
S'squishy'
p300
sS'max_depth'
p301
I4
sg11
(g13
S'\xe6\x1dx2\xf4\x9f\xec?'
tRp302
g11
(g13
S'\x00\x00\x00\x00\x00\x00\x10@'
tRp303
tp304
a(S'diabetes'
(dp305
S'n_forests'
p306
I100
sS'n_jobs'
p307
I-1
sS'weight_extent'
p308
I2
sS'n_trees'
p309
I1
sS'k'
I6
sS'n_features_to_predict'
p310
F0.5
sS'kmeans_type'
p311
S'squishy'
p312
sS'max_depth'
p313
I5
sg11
(g13
S'\xfd\xae\x10\xe5\xc1-\xec?'
tRp314
g11
(g13
S'\xcd\xcc\xcc\xcc\xcc\xcc\x12@'
tRp315
tp316
a(S'diabetes'
(dp317
S'n_forests'
p318
I100
sS'n_jobs'
p319
I-1
sS'weight_extent'
p320
I2
sS'n_trees'
p321
I1
sS'k'
I8
sS'n_features_to_predict'
p322
F0.5
sS'kmeans_type'
p323
S'squishy'
p324
sS'max_depth'
p325
I5
sg11
(g13
S'b\xe4\xb1\xc2\xddz\xe8?'
tRp326
g11
(g13
S'ffffff\x18@'
tRp327
tp328
a(S'diabetes'
(dp329
S'n_forests'
p330
I100
sS'n_jobs'
p331
I-1
sS'weight_extent'
p332
F0.5
sS'n_trees'
p333
I1
sS'k'
I10
sS'n_features_to_predict'
p334
F0.5
sS'kmeans_type'
p335
S'squishy'
p336
sS'max_depth'
p337
I5
sg11
(g13
S'\xe0B^\xbf\x01A\xe8?'
tRp338
g11
(g13
S'\x00\x00\x00\x00\x00\x00\x18@'
tRp339
tp340
a.