(lp1
(dp2
S'n_forests'
p3
I150
sS'max_depth'
p4
I2
sS'weight_extent'
p5
F0.5
sS'n_trees'
p6
I2
sS'k'
I3
sS'learning_rate'
p7
F0.20000000000000001
sS'n_features_to_predict'
p8
F0.5
sa(dp9
g3
I150
sg4
I2
sg5
I1
sg6
I2
sS'k'
I3
sg7
F0.20000000000000001
sg8
F0.5
sa(dp10
g3
I150
sg4
I2
sg5
F1.5
sg6
I2
sS'k'
I3
sg7
F0.20000000000000001
sg8
F0.5
sa(dp11
g3
I150
sg4
I2
sg5
I2
sg6
I2
sS'k'
I3
sg7
F0.20000000000000001
sg8
F0.5
sa(dp12
g3
I150
sg4
I2
sg5
F0.5
sg6
I2
sS'k'
I5
sg7
F0.20000000000000001
sg8
F0.5
sa(dp13
g3
I150
sg4
I2
sg5
I1
sg6
I2
sS'k'
I5
sg7
F0.20000000000000001
sg8
F0.5
sa(dp14
g3
I150
sg4
I2
sg5
F1.5
sg6
I2
sS'k'
I5
sg7
F0.20000000000000001
sg8
F0.5
sa(dp15
g3
I150
sg4
I2
sg5
I2
sg6
I2
sS'k'
I5
sg7
F0.20000000000000001
sg8
F0.5
sa(dp16
g3
I150
sg4
I2
sg5
F0.5
sg6
I2
sS'k'
I7
sg7
F0.20000000000000001
sg8
F0.5
sa(dp17
g3
I150
sg4
I2
sg5
I1
sg6
I2
sS'k'
I7
sg7
F0.20000000000000001
sg8
F0.5
sa(dp18
g3
I150
sg4
I2
sg5
F1.5
sg6
I2
sS'k'
I7
sg7
F0.20000000000000001
sg8
F0.5
sa(dp19
g3
I150
sg4
I2
sg5
I2
sg6
I2
sS'k'
I7
sg7
F0.20000000000000001
sg8
F0.5
sa(dp20
g3
I150
sg4
I2
sg5
F0.5
sg6
I2
sS'k'
I3
sg7
F0.40000000000000002
sg8
F0.5
sa(dp21
g3
I150
sg4
I2
sg5
I1
sg6
I2
sS'k'
I3
sg7
F0.40000000000000002
sg8
F0.5
sa(dp22
g3
I150
sg4
I2
sg5
F1.5
sg6
I2
sS'k'
I3
sg7
F0.40000000000000002
sg8
F0.5
sa(dp23
g3
I150
sg4
I2
sg5
I2
sg6
I2
sS'k'
I3
sg7
F0.40000000000000002
sg8
F0.5
sa(dp24
g3
I150
sg4
I2
sg5
F0.5
sg6
I2
sS'k'
I5
sg7
F0.40000000000000002
sg8
F0.5
sa(dp25
g3
I150
sg4
I2
sg5
I1
sg6
I2
sS'k'
I5
sg7
F0.40000000000000002
sg8
F0.5
sa(dp26
g3
I150
sg4
I2
sg5
F1.5
sg6
I2
sS'k'
I5
sg7
F0.40000000000000002
sg8
F0.5
sa(dp27
g3
I150
sg4
I2
sg5
I2
sg6
I2
sS'k'
I5
sg7
F0.40000000000000002
sg8
F0.5
sa(dp28
g3
I150
sg4
I2
sg5
F0.5
sg6
I2
sS'k'
I7
sg7
F0.40000000000000002
sg8
F0.5
sa(dp29
g3
I150
sg4
I2
sg5
I1
sg6
I2
sS'k'
I7
sg7
F0.40000000000000002
sg8
F0.5
sa(dp30
g3
I150
sg4
I2
sg5
F1.5
sg6
I2
sS'k'
I7
sg7
F0.40000000000000002
sg8
F0.5
sa(dp31
g3
I150
sg4
I2
sg5
I2
sg6
I2
sS'k'
I7
sg7
F0.40000000000000002
sg8
F0.5
sa(dp32
g3
I150
sg4
I2
sg5
F0.5
sg6
I2
sS'k'
I3
sg7
F0.59999999999999998
sg8
F0.5
sa(dp33
g3
I150
sg4
I2
sg5
I1
sg6
I2
sS'k'
I3
sg7
F0.59999999999999998
sg8
F0.5
sa(dp34
g3
I150
sg4
I2
sg5
F1.5
sg6
I2
sS'k'
I3
sg7
F0.59999999999999998
sg8
F0.5
sa(dp35
g3
I150
sg4
I2
sg5
I2
sg6
I2
sS'k'
I3
sg7
F0.59999999999999998
sg8
F0.5
sa(dp36
g3
I150
sg4
I2
sg5
F0.5
sg6
I2
sS'k'
I5
sg7
F0.59999999999999998
sg8
F0.5
sa(dp37
g3
I150
sg4
I2
sg5
I1
sg6
I2
sS'k'
I5
sg7
F0.59999999999999998
sg8
F0.5
sa(dp38
g3
I150
sg4
I2
sg5
F1.5
sg6
I2
sS'k'
I5
sg7
F0.59999999999999998
sg8
F0.5
sa(dp39
g3
I150
sg4
I2
sg5
I2
sg6
I2
sS'k'
I5
sg7
F0.59999999999999998
sg8
F0.5
sa(dp40
g3
I150
sg4
I2
sg5
F0.5
sg6
I2
sS'k'
I7
sg7
F0.59999999999999998
sg8
F0.5
sa(dp41
g3
I150
sg4
I2
sg5
I1
sg6
I2
sS'k'
I7
sg7
F0.59999999999999998
sg8
F0.5
sa(dp42
g3
I150
sg4
I2
sg5
F1.5
sg6
I2
sS'k'
I7
sg7
F0.59999999999999998
sg8
F0.5
sa(dp43
g3
I150
sg4
I2
sg5
I2
sg6
I2
sS'k'
I7
sg7
F0.59999999999999998
sg8
F0.5
sa(dp44
g3
I150
sg4
I2
sg5
F0.5
sg6
I2
sS'k'
I3
sg7
F0.80000000000000004
sg8
F0.5
sa(dp45
g3
I150
sg4
I2
sg5
I1
sg6
I2
sS'k'
I3
sg7
F0.80000000000000004
sg8
F0.5
sa(dp46
g3
I150
sg4
I2
sg5
F1.5
sg6
I2
sS'k'
I3
sg7
F0.80000000000000004
sg8
F0.5
sa(dp47
g3
I150
sg4
I2
sg5
I2
sg6
I2
sS'k'
I3
sg7
F0.80000000000000004
sg8
F0.5
sa(dp48
g3
I150
sg4
I2
sg5
F0.5
sg6
I2
sS'k'
I5
sg7
F0.80000000000000004
sg8
F0.5
sa(dp49
g3
I150
sg4
I2
sg5
I1
sg6
I2
sS'k'
I5
sg7
F0.80000000000000004
sg8
F0.5
sa(dp50
g3
I150
sg4
I2
sg5
F1.5
sg6
I2
sS'k'
I5
sg7
F0.80000000000000004
sg8
F0.5
sa(dp51
g3
I150
sg4
I2
sg5
I2
sg6
I2
sS'k'
I5
sg7
F0.80000000000000004
sg8
F0.5
sa(dp52
g3
I150
sg4
I2
sg5
F0.5
sg6
I2
sS'k'
I7
sg7
F0.80000000000000004
sg8
F0.5
sa(dp53
g3
I150
sg4
I2
sg5
I1
sg6
I2
sS'k'
I7
sg7
F0.80000000000000004
sg8
F0.5
sa(dp54
g3
I150
sg4
I2
sg5
F1.5
sg6
I2
sS'k'
I7
sg7
F0.80000000000000004
sg8
F0.5
sa(dp55
g3
I150
sg4
I2
sg5
I2
sg6
I2
sS'k'
I7
sg7
F0.80000000000000004
sg8
F0.5
sa(dp56
g3
I150
sg4
I2
sg5
F0.5
sg6
I2
sS'k'
I3
sg7
I1
sg8
F0.5
sa(dp57
g3
I150
sg4
I2
sg5
I1
sg6
I2
sS'k'
I3
sg7
I1
sg8
F0.5
sa(dp58
g3
I150
sg4
I2
sg5
F1.5
sg6
I2
sS'k'
I3
sg7
I1
sg8
F0.5
sa(dp59
g3
I150
sg4
I2
sg5
I2
sg6
I2
sS'k'
I3
sg7
I1
sg8
F0.5
sa(dp60
g3
I150
sg4
I2
sg5
F0.5
sg6
I2
sS'k'
I5
sg7
I1
sg8
F0.5
sa(dp61
g3
I150
sg4
I2
sg5
I1
sg6
I2
sS'k'
I5
sg7
I1
sg8
F0.5
sa(dp62
g3
I150
sg4
I2
sg5
F1.5
sg6
I2
sS'k'
I5
sg7
I1
sg8
F0.5
sa(dp63
g3
I150
sg4
I2
sg5
I2
sg6
I2
sS'k'
I5
sg7
I1
sg8
F0.5
sa(dp64
g3
I150
sg4
I2
sg5
F0.5
sg6
I2
sS'k'
I7
sg7
I1
sg8
F0.5
sa(dp65
g3
I150
sg4
I2
sg5
I1
sg6
I2
sS'k'
I7
sg7
I1
sg8
F0.5
sa(dp66
g3
I150
sg4
I2
sg5
F1.5
sg6
I2
sS'k'
I7
sg7
I1
sg8
F0.5
sa(dp67
g3
I150
sg4
I2
sg5
I2
sg6
I2
sS'k'
I7
sg7
I1
sg8
F0.5
sa(dp68
g3
I150
sg4
I3
sg5
F0.5
sg6
I2
sS'k'
I3
sg7
F0.20000000000000001
sg8
F0.5
sa(dp69
g3
I150
sg4
I3
sg5
I1
sg6
I2
sS'k'
I3
sg7
F0.20000000000000001
sg8
F0.5
sa(dp70
g3
I150
sg4
I3
sg5
F1.5
sg6
I2
sS'k'
I3
sg7
F0.20000000000000001
sg8
F0.5
sa(dp71
g3
I150
sg4
I3
sg5
I2
sg6
I2
sS'k'
I3
sg7
F0.20000000000000001
sg8
F0.5
sa(dp72
g3
I150
sg4
I3
sg5
F0.5
sg6
I2
sS'k'
I5
sg7
F0.20000000000000001
sg8
F0.5
sa(dp73
g3
I150
sg4
I3
sg5
I1
sg6
I2
sS'k'
I5
sg7
F0.20000000000000001
sg8
F0.5
sa(dp74
g3
I150
sg4
I3
sg5
F1.5
sg6
I2
sS'k'
I5
sg7
F0.20000000000000001
sg8
F0.5
sa(dp75
g3
I150
sg4
I3
sg5
I2
sg6
I2
sS'k'
I5
sg7
F0.20000000000000001
sg8
F0.5
sa(dp76
g3
I150
sg4
I3
sg5
F0.5
sg6
I2
sS'k'
I7
sg7
F0.20000000000000001
sg8
F0.5
sa(dp77
g3
I150
sg4
I3
sg5
I1
sg6
I2
sS'k'
I7
sg7
F0.20000000000000001
sg8
F0.5
sa(dp78
g3
I150
sg4
I3
sg5
F1.5
sg6
I2
sS'k'
I7
sg7
F0.20000000000000001
sg8
F0.5
sa(dp79
g3
I150
sg4
I3
sg5
I2
sg6
I2
sS'k'
I7
sg7
F0.20000000000000001
sg8
F0.5
sa(dp80
g3
I150
sg4
I3
sg5
F0.5
sg6
I2
sS'k'
I3
sg7
F0.40000000000000002
sg8
F0.5
sa(dp81
g3
I150
sg4
I3
sg5
I1
sg6
I2
sS'k'
I3
sg7
F0.40000000000000002
sg8
F0.5
sa(dp82
g3
I150
sg4
I3
sg5
F1.5
sg6
I2
sS'k'
I3
sg7
F0.40000000000000002
sg8
F0.5
sa(dp83
g3
I150
sg4
I3
sg5
I2
sg6
I2
sS'k'
I3
sg7
F0.40000000000000002
sg8
F0.5
sa(dp84
g3
I150
sg4
I3
sg5
F0.5
sg6
I2
sS'k'
I5
sg7
F0.40000000000000002
sg8
F0.5
sa(dp85
g3
I150
sg4
I3
sg5
I1
sg6
I2
sS'k'
I5
sg7
F0.40000000000000002
sg8
F0.5
sa(dp86
g3
I150
sg4
I3
sg5
F1.5
sg6
I2
sS'k'
I5
sg7
F0.40000000000000002
sg8
F0.5
sa(dp87
g3
I150
sg4
I3
sg5
I2
sg6
I2
sS'k'
I5
sg7
F0.40000000000000002
sg8
F0.5
sa(dp88
g3
I150
sg4
I3
sg5
F0.5
sg6
I2
sS'k'
I7
sg7
F0.40000000000000002
sg8
F0.5
sa(dp89
g3
I150
sg4
I3
sg5
I1
sg6
I2
sS'k'
I7
sg7
F0.40000000000000002
sg8
F0.5
sa(dp90
g3
I150
sg4
I3
sg5
F1.5
sg6
I2
sS'k'
I7
sg7
F0.40000000000000002
sg8
F0.5
sa(dp91
g3
I150
sg4
I3
sg5
I2
sg6
I2
sS'k'
I7
sg7
F0.40000000000000002
sg8
F0.5
sa(dp92
g3
I150
sg4
I3
sg5
F0.5
sg6
I2
sS'k'
I3
sg7
F0.59999999999999998
sg8
F0.5
sa(dp93
g3
I150
sg4
I3
sg5
I1
sg6
I2
sS'k'
I3
sg7
F0.59999999999999998
sg8
F0.5
sa(dp94
g3
I150
sg4
I3
sg5
F1.5
sg6
I2
sS'k'
I3
sg7
F0.59999999999999998
sg8
F0.5
sa(dp95
g3
I150
sg4
I3
sg5
I2
sg6
I2
sS'k'
I3
sg7
F0.59999999999999998
sg8
F0.5
sa(dp96
g3
I150
sg4
I3
sg5
F0.5
sg6
I2
sS'k'
I5
sg7
F0.59999999999999998
sg8
F0.5
sa(dp97
g3
I150
sg4
I3
sg5
I1
sg6
I2
sS'k'
I5
sg7
F0.59999999999999998
sg8
F0.5
sa(dp98
g3
I150
sg4
I3
sg5
F1.5
sg6
I2
sS'k'
I5
sg7
F0.59999999999999998
sg8
F0.5
sa(dp99
g3
I150
sg4
I3
sg5
I2
sg6
I2
sS'k'
I5
sg7
F0.59999999999999998
sg8
F0.5
sa(dp100
g3
I150
sg4
I3
sg5
F0.5
sg6
I2
sS'k'
I7
sg7
F0.59999999999999998
sg8
F0.5
sa(dp101
g3
I150
sg4
I3
sg5
I1
sg6
I2
sS'k'
I7
sg7
F0.59999999999999998
sg8
F0.5
sa(dp102
g3
I150
sg4
I3
sg5
F1.5
sg6
I2
sS'k'
I7
sg7
F0.59999999999999998
sg8
F0.5
sa(dp103
g3
I150
sg4
I3
sg5
I2
sg6
I2
sS'k'
I7
sg7
F0.59999999999999998
sg8
F0.5
sa(dp104
g3
I150
sg4
I3
sg5
F0.5
sg6
I2
sS'k'
I3
sg7
F0.80000000000000004
sg8
F0.5
sa(dp105
g3
I150
sg4
I3
sg5
I1
sg6
I2
sS'k'
I3
sg7
F0.80000000000000004
sg8
F0.5
sa(dp106
g3
I150
sg4
I3
sg5
F1.5
sg6
I2
sS'k'
I3
sg7
F0.80000000000000004
sg8
F0.5
sa(dp107
g3
I150
sg4
I3
sg5
I2
sg6
I2
sS'k'
I3
sg7
F0.80000000000000004
sg8
F0.5
sa(dp108
g3
I150
sg4
I3
sg5
F0.5
sg6
I2
sS'k'
I5
sg7
F0.80000000000000004
sg8
F0.5
sa(dp109
g3
I150
sg4
I3
sg5
I1
sg6
I2
sS'k'
I5
sg7
F0.80000000000000004
sg8
F0.5
sa(dp110
g3
I150
sg4
I3
sg5
F1.5
sg6
I2
sS'k'
I5
sg7
F0.80000000000000004
sg8
F0.5
sa(dp111
g3
I150
sg4
I3
sg5
I2
sg6
I2
sS'k'
I5
sg7
F0.80000000000000004
sg8
F0.5
sa(dp112
g3
I150
sg4
I3
sg5
F0.5
sg6
I2
sS'k'
I7
sg7
F0.80000000000000004
sg8
F0.5
sa(dp113
g3
I150
sg4
I3
sg5
I1
sg6
I2
sS'k'
I7
sg7
F0.80000000000000004
sg8
F0.5
sa(dp114
g3
I150
sg4
I3
sg5
F1.5
sg6
I2
sS'k'
I7
sg7
F0.80000000000000004
sg8
F0.5
sa(dp115
g3
I150
sg4
I3
sg5
I2
sg6
I2
sS'k'
I7
sg7
F0.80000000000000004
sg8
F0.5
sa(dp116
g3
I150
sg4
I3
sg5
F0.5
sg6
I2
sS'k'
I3
sg7
I1
sg8
F0.5
sa(dp117
g3
I150
sg4
I3
sg5
I1
sg6
I2
sS'k'
I3
sg7
I1
sg8
F0.5
sa(dp118
g3
I150
sg4
I3
sg5
F1.5
sg6
I2
sS'k'
I3
sg7
I1
sg8
F0.5
sa(dp119
g3
I150
sg4
I3
sg5
I2
sg6
I2
sS'k'
I3
sg7
I1
sg8
F0.5
sa(dp120
g3
I150
sg4
I3
sg5
F0.5
sg6
I2
sS'k'
I5
sg7
I1
sg8
F0.5
sa(dp121
g3
I150
sg4
I3
sg5
I1
sg6
I2
sS'k'
I5
sg7
I1
sg8
F0.5
sa(dp122
g3
I150
sg4
I3
sg5
F1.5
sg6
I2
sS'k'
I5
sg7
I1
sg8
F0.5
sa(dp123
g3
I150
sg4
I3
sg5
I2
sg6
I2
sS'k'
I5
sg7
I1
sg8
F0.5
sa(dp124
g3
I150
sg4
I3
sg5
F0.5
sg6
I2
sS'k'
I7
sg7
I1
sg8
F0.5
sa(dp125
g3
I150
sg4
I3
sg5
I1
sg6
I2
sS'k'
I7
sg7
I1
sg8
F0.5
sa(dp126
g3
I150
sg4
I3
sg5
F1.5
sg6
I2
sS'k'
I7
sg7
I1
sg8
F0.5
sa(dp127
g3
I150
sg4
I3
sg5
I2
sg6
I2
sS'k'
I7
sg7
I1
sg8
F0.5
sa.