(lp1
(dp2
S'n_forests'
p3
I150
sS'max_depth'
p4
I3
sS'weight_extent'
p5
F0.5
sS'n_trees'
p6
I1
sS'k'
I3
sS'eig_extent'
p7
I0
sS'n_features_to_predict'
p8
F0.5
sa(dp9
g3
I150
sg4
I3
sg5
I1
sg6
I1
sS'k'
I3
sg7
I0
sg8
F0.5
sa(dp10
g3
I150
sg4
I3
sg5
F1.5
sg6
I1
sS'k'
I3
sg7
I0
sg8
F0.5
sa(dp11
g3
I150
sg4
I3
sg5
F0.5
sg6
I1
sS'k'
I5
sg7
I0
sg8
F0.5
sa(dp12
g3
I150
sg4
I3
sg5
I1
sg6
I1
sS'k'
I5
sg7
I0
sg8
F0.5
sa(dp13
g3
I150
sg4
I3
sg5
F1.5
sg6
I1
sS'k'
I5
sg7
I0
sg8
F0.5
sa(dp14
g3
I150
sg4
I3
sg5
F0.5
sg6
I1
sS'k'
I7
sg7
I0
sg8
F0.5
sa(dp15
g3
I150
sg4
I3
sg5
I1
sg6
I1
sS'k'
I7
sg7
I0
sg8
F0.5
sa(dp16
g3
I150
sg4
I3
sg5
F1.5
sg6
I1
sS'k'
I7
sg7
I0
sg8
F0.5
sa(dp17
g3
I150
sg4
I3
sg5
F0.5
sg6
I1
sS'k'
I3
sg7
I1
sg8
F0.5
sa(dp18
g3
I150
sg4
I3
sg5
I1
sg6
I1
sS'k'
I3
sg7
I1
sg8
F0.5
sa(dp19
g3
I150
sg4
I3
sg5
F1.5
sg6
I1
sS'k'
I3
sg7
I1
sg8
F0.5
sa(dp20
g3
I150
sg4
I3
sg5
F0.5
sg6
I1
sS'k'
I5
sg7
I1
sg8
F0.5
sa(dp21
g3
I150
sg4
I3
sg5
I1
sg6
I1
sS'k'
I5
sg7
I1
sg8
F0.5
sa(dp22
g3
I150
sg4
I3
sg5
F1.5
sg6
I1
sS'k'
I5
sg7
I1
sg8
F0.5
sa(dp23
g3
I150
sg4
I3
sg5
F0.5
sg6
I1
sS'k'
I7
sg7
I1
sg8
F0.5
sa(dp24
g3
I150
sg4
I3
sg5
I1
sg6
I1
sS'k'
I7
sg7
I1
sg8
F0.5
sa(dp25
g3
I150
sg4
I3
sg5
F1.5
sg6
I1
sS'k'
I7
sg7
I1
sg8
F0.5
sa(dp26
g3
I150
sg4
I3
sg5
F0.5
sg6
I1
sS'k'
I3
sg7
I2
sg8
F0.5
sa(dp27
g3
I150
sg4
I3
sg5
I1
sg6
I1
sS'k'
I3
sg7
I2
sg8
F0.5
sa(dp28
g3
I150
sg4
I3
sg5
F1.5
sg6
I1
sS'k'
I3
sg7
I2
sg8
F0.5
sa(dp29
g3
I150
sg4
I3
sg5
F0.5
sg6
I1
sS'k'
I5
sg7
I2
sg8
F0.5
sa(dp30
g3
I150
sg4
I3
sg5
I1
sg6
I1
sS'k'
I5
sg7
I2
sg8
F0.5
sa(dp31
g3
I150
sg4
I3
sg5
F1.5
sg6
I1
sS'k'
I5
sg7
I2
sg8
F0.5
sa(dp32
g3
I150
sg4
I3
sg5
F0.5
sg6
I1
sS'k'
I7
sg7
I2
sg8
F0.5
sa(dp33
g3
I150
sg4
I3
sg5
I1
sg6
I1
sS'k'
I7
sg7
I2
sg8
F0.5
sa(dp34
g3
I150
sg4
I3
sg5
F1.5
sg6
I1
sS'k'
I7
sg7
I2
sg8
F0.5
sa(dp35
g3
I150
sg4
I3
sg5
F0.5
sg6
I1
sS'k'
I3
sg7
I4
sg8
F0.5
sa(dp36
g3
I150
sg4
I3
sg5
I1
sg6
I1
sS'k'
I3
sg7
I4
sg8
F0.5
sa(dp37
g3
I150
sg4
I3
sg5
F1.5
sg6
I1
sS'k'
I3
sg7
I4
sg8
F0.5
sa(dp38
g3
I150
sg4
I3
sg5
F0.5
sg6
I1
sS'k'
I5
sg7
I4
sg8
F0.5
sa(dp39
g3
I150
sg4
I3
sg5
I1
sg6
I1
sS'k'
I5
sg7
I4
sg8
F0.5
sa(dp40
g3
I150
sg4
I3
sg5
F1.5
sg6
I1
sS'k'
I5
sg7
I4
sg8
F0.5
sa(dp41
g3
I150
sg4
I3
sg5
F0.5
sg6
I1
sS'k'
I7
sg7
I4
sg8
F0.5
sa(dp42
g3
I150
sg4
I3
sg5
I1
sg6
I1
sS'k'
I7
sg7
I4
sg8
F0.5
sa(dp43
g3
I150
sg4
I3
sg5
F1.5
sg6
I1
sS'k'
I7
sg7
I4
sg8
F0.5
sa.