(lp1
(S'AffinityPropegation'
p2
(dp3
S'convergence_iter'
p4
I1
sS'damping'
p5
F0.75
stp6
a(g2
(dp7
g4
I1
sg5
F0.76000000000000001
stp8
a(g2
(dp9
g4
I1
sg5
F0.77000000000000002
stp10
a(g2
(dp11
g4
I1
sg5
F0.78000000000000003
stp12
a(g2
(dp13
g4
I1
sg5
F0.79000000000000004
stp14
a(g2
(dp15
g4
I1
sg5
F0.80000000000000004
stp16
a(g2
(dp17
g4
I1
sg5
F0.82499999999999996
stp18
a(g2
(dp19
g4
I1
sg5
F0.84999999999999998
stp20
a(g2
(dp21
g4
I1
sg5
F0.90000000000000002
stp22
a(g2
(dp23
g4
I2
sg5
F0.75
stp24
a(g2
(dp25
g4
I2
sg5
F0.76000000000000001
stp26
a(g2
(dp27
g4
I2
sg5
F0.77000000000000002
stp28
a(g2
(dp29
g4
I2
sg5
F0.78000000000000003
stp30
a(g2
(dp31
g4
I2
sg5
F0.79000000000000004
stp32
a(g2
(dp33
g4
I2
sg5
F0.80000000000000004
stp34
a(g2
(dp35
g4
I2
sg5
F0.82499999999999996
stp36
a(g2
(dp37
g4
I2
sg5
F0.84999999999999998
stp38
a(g2
(dp39
g4
I2
sg5
F0.90000000000000002
stp40
a(S'DBSCAN'
p41
(dp42
S'min_samples'
p43
I2
sS'eps'
p44
F0.10000000000000001
stp45
a(g41
(dp46
g43
I2
sg44
F0.29999999999999999
stp47
a(g41
(dp48
g43
I2
sg44
F0.5
stp49
a(g41
(dp50
g43
I2
sg44
F0.69999999999999996
stp51
a(g41
(dp52
g43
I4
sg44
F0.10000000000000001
stp53
a(g41
(dp54
g43
I4
sg44
F0.29999999999999999
stp55
a(g41
(dp56
g43
I4
sg44
F0.5
stp57
a(g41
(dp58
g43
I4
sg44
F0.69999999999999996
stp59
a(g41
(dp60
g43
I6
sg44
F0.10000000000000001
stp61
a(g41
(dp62
g43
I6
sg44
F0.29999999999999999
stp63
a(g41
(dp64
g43
I6
sg44
F0.5
stp65
a(g41
(dp66
g43
I6
sg44
F0.69999999999999996
stp67
a(g41
(dp68
g43
I8
sg44
F0.10000000000000001
stp69
a(g41
(dp70
g43
I8
sg44
F0.29999999999999999
stp71
a(g41
(dp72
g43
I8
sg44
F0.5
stp73
a(g41
(dp74
g43
I8
sg44
F0.69999999999999996
stp75
a(g41
(dp76
g43
I10
sg44
F0.10000000000000001
stp77
a(g41
(dp78
g43
I10
sg44
F0.29999999999999999
stp79
a(g41
(dp80
g43
I10
sg44
F0.5
stp81
a(g41
(dp82
g43
I10
sg44
F0.69999999999999996
stp83
a(S'KMeans'
p84
(dp85
S'n_clusters'
p86
I2
stp87
a(g84
(dp88
g86
I3
stp89
a(g84
(dp90
g86
I4
stp91
a(g84
(dp92
g86
I5
stp93
a(g84
(dp94
g86
I6
stp95
a(g84
(dp96
g86
I7
stp97
a(g84
(dp98
g86
I8
stp99
a(g84
(dp100
g86
I9
stp101
a(g84
(dp102
g86
I10
stp103
a(g84
(dp104
g86
I11
stp105
a(g84
(dp106
g86
I12
stp107
a(S'AA_SLCluster'
p108
(dp109
S'n_forests'
p110
I150
sS'weight_extent'
p111
F0.75
sS'n_trees'
p112
I1
sS'k'
I2
sS'n_features_to_predict'
p113
F0.29999999999999999
sS'max_depth'
p114
I3
stp115
a(g108
(dp116
g110
I150
sg111
F0.75
sg112
I1
sS'k'
I2
sg113
F0.29999999999999999
sg114
I4
stp117
a(g108
(dp118
g110
I150
sg111
F0.75
sg112
I1
sS'k'
I2
sg113
F0.29999999999999999
sg114
I5
stp119
a(g108
(dp120
g110
I150
sg111
F0.75
sg112
I1
sS'k'
I2
sg113
F0.29999999999999999
sg114
I6
stp121
a(g108
(dp122
g110
I150
sg111
F0.75
sg112
I1
sS'k'
I2
sg113
F0.5
sg114
I3
stp123
a(g108
(dp124
g110
I150
sg111
F0.75
sg112
I1
sS'k'
I2
sg113
F0.5
sg114
I4
stp125
a(g108
(dp126
g110
I150
sg111
F0.75
sg112
I1
sS'k'
I2
sg113
F0.5
sg114
I5
stp127
a(g108
(dp128
g110
I150
sg111
F0.75
sg112
I1
sS'k'
I2
sg113
F0.5
sg114
I6
stp129
a(g108
(dp130
g110
I150
sg111
F0.75
sg112
I2
sS'k'
I2
sg113
F0.29999999999999999
sg114
I3
stp131
a(g108
(dp132
g110
I150
sg111
F0.75
sg112
I2
sS'k'
I2
sg113
F0.29999999999999999
sg114
I4
stp133
a(g108
(dp134
g110
I150
sg111
F0.75
sg112
I2
sS'k'
I2
sg113
F0.29999999999999999
sg114
I5
stp135
a(g108
(dp136
g110
I150
sg111
F0.75
sg112
I2
sS'k'
I2
sg113
F0.29999999999999999
sg114
I6
stp137
a(g108
(dp138
g110
I150
sg111
F0.75
sg112
I2
sS'k'
I2
sg113
F0.5
sg114
I3
stp139
a(g108
(dp140
g110
I150
sg111
F0.75
sg112
I2
sS'k'
I2
sg113
F0.5
sg114
I4
stp141
a(g108
(dp142
g110
I150
sg111
F0.75
sg112
I2
sS'k'
I2
sg113
F0.5
sg114
I5
stp143
a(g108
(dp144
g110
I150
sg111
F0.75
sg112
I2
sS'k'
I2
sg113
F0.5
sg114
I6
stp145
a(g108
(dp146
g110
I150
sg111
F0.75
sg112
I1
sS'k'
I3
sg113
F0.29999999999999999
sg114
I3
stp147
a(g108
(dp148
g110
I150
sg111
F0.75
sg112
I1
sS'k'
I3
sg113
F0.29999999999999999
sg114
I4
stp149
a(g108
(dp150
g110
I150
sg111
F0.75
sg112
I1
sS'k'
I3
sg113
F0.29999999999999999
sg114
I5
stp151
a(g108
(dp152
g110
I150
sg111
F0.75
sg112
I1
sS'k'
I3
sg113
F0.29999999999999999
sg114
I6
stp153
a(g108
(dp154
g110
I150
sg111
F0.75
sg112
I1
sS'k'
I3
sg113
F0.5
sg114
I3
stp155
a(g108
(dp156
g110
I150
sg111
F0.75
sg112
I1
sS'k'
I3
sg113
F0.5
sg114
I4
stp157
a(g108
(dp158
g110
I150
sg111
F0.75
sg112
I1
sS'k'
I3
sg113
F0.5
sg114
I5
stp159
a(g108
(dp160
g110
I150
sg111
F0.75
sg112
I1
sS'k'
I3
sg113
F0.5
sg114
I6
stp161
a(g108
(dp162
g110
I150
sg111
F0.75
sg112
I2
sS'k'
I3
sg113
F0.29999999999999999
sg114
I3
stp163
a(g108
(dp164
g110
I150
sg111
F0.75
sg112
I2
sS'k'
I3
sg113
F0.29999999999999999
sg114
I4
stp165
a(g108
(dp166
g110
I150
sg111
F0.75
sg112
I2
sS'k'
I3
sg113
F0.29999999999999999
sg114
I5
stp167
a(g108
(dp168
g110
I150
sg111
F0.75
sg112
I2
sS'k'
I3
sg113
F0.29999999999999999
sg114
I6
stp169
a(g108
(dp170
g110
I150
sg111
F0.75
sg112
I2
sS'k'
I3
sg113
F0.5
sg114
I3
stp171
a(g108
(dp172
g110
I150
sg111
F0.75
sg112
I2
sS'k'
I3
sg113
F0.5
sg114
I4
stp173
a(g108
(dp174
g110
I150
sg111
F0.75
sg112
I2
sS'k'
I3
sg113
F0.5
sg114
I5
stp175
a(g108
(dp176
g110
I150
sg111
F0.75
sg112
I2
sS'k'
I3
sg113
F0.5
sg114
I6
stp177
a(g108
(dp178
g110
I150
sg111
F0.75
sg112
I1
sS'k'
I4
sg113
F0.29999999999999999
sg114
I3
stp179
a(g108
(dp180
g110
I150
sg111
F0.75
sg112
I1
sS'k'
I4
sg113
F0.29999999999999999
sg114
I4
stp181
a(g108
(dp182
g110
I150
sg111
F0.75
sg112
I1
sS'k'
I4
sg113
F0.29999999999999999
sg114
I5
stp183
a(g108
(dp184
g110
I150
sg111
F0.75
sg112
I1
sS'k'
I4
sg113
F0.29999999999999999
sg114
I6
stp185
a(g108
(dp186
g110
I150
sg111
F0.75
sg112
I1
sS'k'
I4
sg113
F0.5
sg114
I3
stp187
a(g108
(dp188
g110
I150
sg111
F0.75
sg112
I1
sS'k'
I4
sg113
F0.5
sg114
I4
stp189
a(g108
(dp190
g110
I150
sg111
F0.75
sg112
I1
sS'k'
I4
sg113
F0.5
sg114
I5
stp191
a(g108
(dp192
g110
I150
sg111
F0.75
sg112
I1
sS'k'
I4
sg113
F0.5
sg114
I6
stp193
a(g108
(dp194
g110
I150
sg111
F0.75
sg112
I2
sS'k'
I4
sg113
F0.29999999999999999
sg114
I3
stp195
a(g108
(dp196
g110
I150
sg111
F0.75
sg112
I2
sS'k'
I4
sg113
F0.29999999999999999
sg114
I4
stp197
a(g108
(dp198
g110
I150
sg111
F0.75
sg112
I2
sS'k'
I4
sg113
F0.29999999999999999
sg114
I5
stp199
a(g108
(dp200
g110
I150
sg111
F0.75
sg112
I2
sS'k'
I4
sg113
F0.29999999999999999
sg114
I6
stp201
a(g108
(dp202
g110
I150
sg111
F0.75
sg112
I2
sS'k'
I4
sg113
F0.5
sg114
I3
stp203
a(g108
(dp204
g110
I150
sg111
F0.75
sg112
I2
sS'k'
I4
sg113
F0.5
sg114
I4
stp205
a(g108
(dp206
g110
I150
sg111
F0.75
sg112
I2
sS'k'
I4
sg113
F0.5
sg114
I5
stp207
a(g108
(dp208
g110
I150
sg111
F0.75
sg112
I2
sS'k'
I4
sg113
F0.5
sg114
I6
stp209
a(g108
(dp210
g110
I150
sg111
F0.75
sg112
I1
sS'k'
I5
sg113
F0.29999999999999999
sg114
I3
stp211
a(g108
(dp212
g110
I150
sg111
F0.75
sg112
I1
sS'k'
I5
sg113
F0.29999999999999999
sg114
I4
stp213
a(g108
(dp214
g110
I150
sg111
F0.75
sg112
I1
sS'k'
I5
sg113
F0.29999999999999999
sg114
I5
stp215
a(g108
(dp216
g110
I150
sg111
F0.75
sg112
I1
sS'k'
I5
sg113
F0.29999999999999999
sg114
I6
stp217
a(g108
(dp218
g110
I150
sg111
F0.75
sg112
I1
sS'k'
I5
sg113
F0.5
sg114
I3
stp219
a(g108
(dp220
g110
I150
sg111
F0.75
sg112
I1
sS'k'
I5
sg113
F0.5
sg114
I4
stp221
a(g108
(dp222
g110
I150
sg111
F0.75
sg112
I1
sS'k'
I5
sg113
F0.5
sg114
I5
stp223
a(g108
(dp224
g110
I150
sg111
F0.75
sg112
I1
sS'k'
I5
sg113
F0.5
sg114
I6
stp225
a(g108
(dp226
g110
I150
sg111
F0.75
sg112
I2
sS'k'
I5
sg113
F0.29999999999999999
sg114
I3
stp227
a(g108
(dp228
g110
I150
sg111
F0.75
sg112
I2
sS'k'
I5
sg113
F0.29999999999999999
sg114
I4
stp229
a(g108
(dp230
g110
I150
sg111
F0.75
sg112
I2
sS'k'
I5
sg113
F0.29999999999999999
sg114
I5
stp231
a(g108
(dp232
g110
I150
sg111
F0.75
sg112
I2
sS'k'
I5
sg113
F0.29999999999999999
sg114
I6
stp233
a(g108
(dp234
g110
I150
sg111
F0.75
sg112
I2
sS'k'
I5
sg113
F0.5
sg114
I3
stp235
a(g108
(dp236
g110
I150
sg111
F0.75
sg112
I2
sS'k'
I5
sg113
F0.5
sg114
I4
stp237
a(g108
(dp238
g110
I150
sg111
F0.75
sg112
I2
sS'k'
I5
sg113
F0.5
sg114
I5
stp239
a(g108
(dp240
g110
I150
sg111
F0.75
sg112
I2
sS'k'
I5
sg113
F0.5
sg114
I6
stp241
a(g108
(dp242
g110
I150
sg111
F0.75
sg112
I1
sS'k'
I6
sg113
F0.29999999999999999
sg114
I3
stp243
a(g108
(dp244
g110
I150
sg111
F0.75
sg112
I1
sS'k'
I6
sg113
F0.29999999999999999
sg114
I4
stp245
a(g108
(dp246
g110
I150
sg111
F0.75
sg112
I1
sS'k'
I6
sg113
F0.29999999999999999
sg114
I5
stp247
a(g108
(dp248
g110
I150
sg111
F0.75
sg112
I1
sS'k'
I6
sg113
F0.29999999999999999
sg114
I6
stp249
a(g108
(dp250
g110
I150
sg111
F0.75
sg112
I1
sS'k'
I6
sg113
F0.5
sg114
I3
stp251
a(g108
(dp252
g110
I150
sg111
F0.75
sg112
I1
sS'k'
I6
sg113
F0.5
sg114
I4
stp253
a(g108
(dp254
g110
I150
sg111
F0.75
sg112
I1
sS'k'
I6
sg113
F0.5
sg114
I5
stp255
a(g108
(dp256
g110
I150
sg111
F0.75
sg112
I1
sS'k'
I6
sg113
F0.5
sg114
I6
stp257
a(g108
(dp258
g110
I150
sg111
F0.75
sg112
I2
sS'k'
I6
sg113
F0.29999999999999999
sg114
I3
stp259
a(g108
(dp260
g110
I150
sg111
F0.75
sg112
I2
sS'k'
I6
sg113
F0.29999999999999999
sg114
I4
stp261
a(g108
(dp262
g110
I150
sg111
F0.75
sg112
I2
sS'k'
I6
sg113
F0.29999999999999999
sg114
I5
stp263
a(g108
(dp264
g110
I150
sg111
F0.75
sg112
I2
sS'k'
I6
sg113
F0.29999999999999999
sg114
I6
stp265
a(g108
(dp266
g110
I150
sg111
F0.75
sg112
I2
sS'k'
I6
sg113
F0.5
sg114
I3
stp267
a(g108
(dp268
g110
I150
sg111
F0.75
sg112
I2
sS'k'
I6
sg113
F0.5
sg114
I4
stp269
a(g108
(dp270
g110
I150
sg111
F0.75
sg112
I2
sS'k'
I6
sg113
F0.5
sg114
I5
stp271
a(g108
(dp272
g110
I150
sg111
F0.75
sg112
I2
sS'k'
I6
sg113
F0.5
sg114
I6
stp273
a(g108
(dp274
g110
I150
sg111
F0.75
sg112
I1
sS'k'
I7
sg113
F0.29999999999999999
sg114
I3
stp275
a(g108
(dp276
g110
I150
sg111
F0.75
sg112
I1
sS'k'
I7
sg113
F0.29999999999999999
sg114
I4
stp277
a(g108
(dp278
g110
I150
sg111
F0.75
sg112
I1
sS'k'
I7
sg113
F0.29999999999999999
sg114
I5
stp279
a(g108
(dp280
g110
I150
sg111
F0.75
sg112
I1
sS'k'
I7
sg113
F0.29999999999999999
sg114
I6
stp281
a(g108
(dp282
g110
I150
sg111
F0.75
sg112
I1
sS'k'
I7
sg113
F0.5
sg114
I3
stp283
a(g108
(dp284
g110
I150
sg111
F0.75
sg112
I1
sS'k'
I7
sg113
F0.5
sg114
I4
stp285
a(g108
(dp286
g110
I150
sg111
F0.75
sg112
I1
sS'k'
I7
sg113
F0.5
sg114
I5
stp287
a(g108
(dp288
g110
I150
sg111
F0.75
sg112
I1
sS'k'
I7
sg113
F0.5
sg114
I6
stp289
a(g108
(dp290
g110
I150
sg111
F0.75
sg112
I2
sS'k'
I7
sg113
F0.29999999999999999
sg114
I3
stp291
a(g108
(dp292
g110
I150
sg111
F0.75
sg112
I2
sS'k'
I7
sg113
F0.29999999999999999
sg114
I4
stp293
a(g108
(dp294
g110
I150
sg111
F0.75
sg112
I2
sS'k'
I7
sg113
F0.29999999999999999
sg114
I5
stp295
a(g108
(dp296
g110
I150
sg111
F0.75
sg112
I2
sS'k'
I7
sg113
F0.29999999999999999
sg114
I6
stp297
a(g108
(dp298
g110
I150
sg111
F0.75
sg112
I2
sS'k'
I7
sg113
F0.5
sg114
I3
stp299
a(g108
(dp300
g110
I150
sg111
F0.75
sg112
I2
sS'k'
I7
sg113
F0.5
sg114
I4
stp301
a(g108
(dp302
g110
I150
sg111
F0.75
sg112
I2
sS'k'
I7
sg113
F0.5
sg114
I5
stp303
a(g108
(dp304
g110
I150
sg111
F0.75
sg112
I2
sS'k'
I7
sg113
F0.5
sg114
I6
stp305
a(g108
(dp306
g110
I150
sg111
F0.75
sg112
I1
sS'k'
I8
sg113
F0.29999999999999999
sg114
I3
stp307
a(g108
(dp308
g110
I150
sg111
F0.75
sg112
I1
sS'k'
I8
sg113
F0.29999999999999999
sg114
I4
stp309
a(g108
(dp310
g110
I150
sg111
F0.75
sg112
I1
sS'k'
I8
sg113
F0.29999999999999999
sg114
I5
stp311
a(g108
(dp312
g110
I150
sg111
F0.75
sg112
I1
sS'k'
I8
sg113
F0.29999999999999999
sg114
I6
stp313
a(g108
(dp314
g110
I150
sg111
F0.75
sg112
I1
sS'k'
I8
sg113
F0.5
sg114
I3
stp315
a(g108
(dp316
g110
I150
sg111
F0.75
sg112
I1
sS'k'
I8
sg113
F0.5
sg114
I4
stp317
a(g108
(dp318
g110
I150
sg111
F0.75
sg112
I1
sS'k'
I8
sg113
F0.5
sg114
I5
stp319
a(g108
(dp320
g110
I150
sg111
F0.75
sg112
I1
sS'k'
I8
sg113
F0.5
sg114
I6
stp321
a(g108
(dp322
g110
I150
sg111
F0.75
sg112
I2
sS'k'
I8
sg113
F0.29999999999999999
sg114
I3
stp323
a(g108
(dp324
g110
I150
sg111
F0.75
sg112
I2
sS'k'
I8
sg113
F0.29999999999999999
sg114
I4
stp325
a(g108
(dp326
g110
I150
sg111
F0.75
sg112
I2
sS'k'
I8
sg113
F0.29999999999999999
sg114
I5
stp327
a(g108
(dp328
g110
I150
sg111
F0.75
sg112
I2
sS'k'
I8
sg113
F0.29999999999999999
sg114
I6
stp329
a(g108
(dp330
g110
I150
sg111
F0.75
sg112
I2
sS'k'
I8
sg113
F0.5
sg114
I3
stp331
a(g108
(dp332
g110
I150
sg111
F0.75
sg112
I2
sS'k'
I8
sg113
F0.5
sg114
I4
stp333
a(g108
(dp334
g110
I150
sg111
F0.75
sg112
I2
sS'k'
I8
sg113
F0.5
sg114
I5
stp335
a(g108
(dp336
g110
I150
sg111
F0.75
sg112
I2
sS'k'
I8
sg113
F0.5
sg114
I6
stp337
a(g108
(dp338
g110
I150
sg111
F0.75
sg112
I1
sS'k'
I9
sg113
F0.29999999999999999
sg114
I3
stp339
a(g108
(dp340
g110
I150
sg111
F0.75
sg112
I1
sS'k'
I9
sg113
F0.29999999999999999
sg114
I4
stp341
a(g108
(dp342
g110
I150
sg111
F0.75
sg112
I1
sS'k'
I9
sg113
F0.29999999999999999
sg114
I5
stp343
a(g108
(dp344
g110
I150
sg111
F0.75
sg112
I1
sS'k'
I9
sg113
F0.29999999999999999
sg114
I6
stp345
a(g108
(dp346
g110
I150
sg111
F0.75
sg112
I1
sS'k'
I9
sg113
F0.5
sg114
I3
stp347
a(g108
(dp348
g110
I150
sg111
F0.75
sg112
I1
sS'k'
I9
sg113
F0.5
sg114
I4
stp349
a(g108
(dp350
g110
I150
sg111
F0.75
sg112
I1
sS'k'
I9
sg113
F0.5
sg114
I5
stp351
a(g108
(dp352
g110
I150
sg111
F0.75
sg112
I1
sS'k'
I9
sg113
F0.5
sg114
I6
stp353
a(g108
(dp354
g110
I150
sg111
F0.75
sg112
I2
sS'k'
I9
sg113
F0.29999999999999999
sg114
I3
stp355
a(g108
(dp356
g110
I150
sg111
F0.75
sg112
I2
sS'k'
I9
sg113
F0.29999999999999999
sg114
I4
stp357
a(g108
(dp358
g110
I150
sg111
F0.75
sg112
I2
sS'k'
I9
sg113
F0.29999999999999999
sg114
I5
stp359
a(g108
(dp360
g110
I150
sg111
F0.75
sg112
I2
sS'k'
I9
sg113
F0.29999999999999999
sg114
I6
stp361
a(g108
(dp362
g110
I150
sg111
F0.75
sg112
I2
sS'k'
I9
sg113
F0.5
sg114
I3
stp363
a(g108
(dp364
g110
I150
sg111
F0.75
sg112
I2
sS'k'
I9
sg113
F0.5
sg114
I4
stp365
a(g108
(dp366
g110
I150
sg111
F0.75
sg112
I2
sS'k'
I9
sg113
F0.5
sg114
I5
stp367
a(g108
(dp368
g110
I150
sg111
F0.75
sg112
I2
sS'k'
I9
sg113
F0.5
sg114
I6
stp369
a(g108
(dp370
g110
I150
sg111
F0.75
sg112
I1
sS'k'
I10
sg113
F0.29999999999999999
sg114
I3
stp371
a(g108
(dp372
g110
I150
sg111
F0.75
sg112
I1
sS'k'
I10
sg113
F0.29999999999999999
sg114
I4
stp373
a(g108
(dp374
g110
I150
sg111
F0.75
sg112
I1
sS'k'
I10
sg113
F0.29999999999999999
sg114
I5
stp375
a(g108
(dp376
g110
I150
sg111
F0.75
sg112
I1
sS'k'
I10
sg113
F0.29999999999999999
sg114
I6
stp377
a(g108
(dp378
g110
I150
sg111
F0.75
sg112
I1
sS'k'
I10
sg113
F0.5
sg114
I3
stp379
a(g108
(dp380
g110
I150
sg111
F0.75
sg112
I1
sS'k'
I10
sg113
F0.5
sg114
I4
stp381
a(g108
(dp382
g110
I150
sg111
F0.75
sg112
I1
sS'k'
I10
sg113
F0.5
sg114
I5
stp383
a(g108
(dp384
g110
I150
sg111
F0.75
sg112
I1
sS'k'
I10
sg113
F0.5
sg114
I6
stp385
a(g108
(dp386
g110
I150
sg111
F0.75
sg112
I2
sS'k'
I10
sg113
F0.29999999999999999
sg114
I3
stp387
a(g108
(dp388
g110
I150
sg111
F0.75
sg112
I2
sS'k'
I10
sg113
F0.29999999999999999
sg114
I4
stp389
a(g108
(dp390
g110
I150
sg111
F0.75
sg112
I2
sS'k'
I10
sg113
F0.29999999999999999
sg114
I5
stp391
a(g108
(dp392
g110
I150
sg111
F0.75
sg112
I2
sS'k'
I10
sg113
F0.29999999999999999
sg114
I6
stp393
a(g108
(dp394
g110
I150
sg111
F0.75
sg112
I2
sS'k'
I10
sg113
F0.5
sg114
I3
stp395
a(g108
(dp396
g110
I150
sg111
F0.75
sg112
I2
sS'k'
I10
sg113
F0.5
sg114
I4
stp397
a(g108
(dp398
g110
I150
sg111
F0.75
sg112
I2
sS'k'
I10
sg113
F0.5
sg114
I5
stp399
a(g108
(dp400
g110
I150
sg111
F0.75
sg112
I2
sS'k'
I10
sg113
F0.5
sg114
I6
stp401
a(g108
(dp402
g110
I150
sg111
I1
sg112
I1
sS'k'
I2
sg113
F0.29999999999999999
sg114
I3
stp403
a(g108
(dp404
g110
I150
sg111
I1
sg112
I1
sS'k'
I2
sg113
F0.29999999999999999
sg114
I4
stp405
a(g108
(dp406
g110
I150
sg111
I1
sg112
I1
sS'k'
I2
sg113
F0.29999999999999999
sg114
I5
stp407
a(g108
(dp408
g110
I150
sg111
I1
sg112
I1
sS'k'
I2
sg113
F0.29999999999999999
sg114
I6
stp409
a(g108
(dp410
g110
I150
sg111
I1
sg112
I1
sS'k'
I2
sg113
F0.5
sg114
I3
stp411
a(g108
(dp412
g110
I150
sg111
I1
sg112
I1
sS'k'
I2
sg113
F0.5
sg114
I4
stp413
a(g108
(dp414
g110
I150
sg111
I1
sg112
I1
sS'k'
I2
sg113
F0.5
sg114
I5
stp415
a(g108
(dp416
g110
I150
sg111
I1
sg112
I1
sS'k'
I2
sg113
F0.5
sg114
I6
stp417
a(g108
(dp418
g110
I150
sg111
I1
sg112
I2
sS'k'
I2
sg113
F0.29999999999999999
sg114
I3
stp419
a(g108
(dp420
g110
I150
sg111
I1
sg112
I2
sS'k'
I2
sg113
F0.29999999999999999
sg114
I4
stp421
a(g108
(dp422
g110
I150
sg111
I1
sg112
I2
sS'k'
I2
sg113
F0.29999999999999999
sg114
I5
stp423
a(g108
(dp424
g110
I150
sg111
I1
sg112
I2
sS'k'
I2
sg113
F0.29999999999999999
sg114
I6
stp425
a(g108
(dp426
g110
I150
sg111
I1
sg112
I2
sS'k'
I2
sg113
F0.5
sg114
I3
stp427
a(g108
(dp428
g110
I150
sg111
I1
sg112
I2
sS'k'
I2
sg113
F0.5
sg114
I4
stp429
a(g108
(dp430
g110
I150
sg111
I1
sg112
I2
sS'k'
I2
sg113
F0.5
sg114
I5
stp431
a(g108
(dp432
g110
I150
sg111
I1
sg112
I2
sS'k'
I2
sg113
F0.5
sg114
I6
stp433
a(g108
(dp434
g110
I150
sg111
I1
sg112
I1
sS'k'
I3
sg113
F0.29999999999999999
sg114
I3
stp435
a(g108
(dp436
g110
I150
sg111
I1
sg112
I1
sS'k'
I3
sg113
F0.29999999999999999
sg114
I4
stp437
a(g108
(dp438
g110
I150
sg111
I1
sg112
I1
sS'k'
I3
sg113
F0.29999999999999999
sg114
I5
stp439
a(g108
(dp440
g110
I150
sg111
I1
sg112
I1
sS'k'
I3
sg113
F0.29999999999999999
sg114
I6
stp441
a(g108
(dp442
g110
I150
sg111
I1
sg112
I1
sS'k'
I3
sg113
F0.5
sg114
I3
stp443
a(g108
(dp444
g110
I150
sg111
I1
sg112
I1
sS'k'
I3
sg113
F0.5
sg114
I4
stp445
a(g108
(dp446
g110
I150
sg111
I1
sg112
I1
sS'k'
I3
sg113
F0.5
sg114
I5
stp447
a(g108
(dp448
g110
I150
sg111
I1
sg112
I1
sS'k'
I3
sg113
F0.5
sg114
I6
stp449
a(g108
(dp450
g110
I150
sg111
I1
sg112
I2
sS'k'
I3
sg113
F0.29999999999999999
sg114
I3
stp451
a(g108
(dp452
g110
I150
sg111
I1
sg112
I2
sS'k'
I3
sg113
F0.29999999999999999
sg114
I4
stp453
a(g108
(dp454
g110
I150
sg111
I1
sg112
I2
sS'k'
I3
sg113
F0.29999999999999999
sg114
I5
stp455
a(g108
(dp456
g110
I150
sg111
I1
sg112
I2
sS'k'
I3
sg113
F0.29999999999999999
sg114
I6
stp457
a(g108
(dp458
g110
I150
sg111
I1
sg112
I2
sS'k'
I3
sg113
F0.5
sg114
I3
stp459
a(g108
(dp460
g110
I150
sg111
I1
sg112
I2
sS'k'
I3
sg113
F0.5
sg114
I4
stp461
a(g108
(dp462
g110
I150
sg111
I1
sg112
I2
sS'k'
I3
sg113
F0.5
sg114
I5
stp463
a(g108
(dp464
g110
I150
sg111
I1
sg112
I2
sS'k'
I3
sg113
F0.5
sg114
I6
stp465
a(g108
(dp466
g110
I150
sg111
I1
sg112
I1
sS'k'
I4
sg113
F0.29999999999999999
sg114
I3
stp467
a(g108
(dp468
g110
I150
sg111
I1
sg112
I1
sS'k'
I4
sg113
F0.29999999999999999
sg114
I4
stp469
a(g108
(dp470
g110
I150
sg111
I1
sg112
I1
sS'k'
I4
sg113
F0.29999999999999999
sg114
I5
stp471
a(g108
(dp472
g110
I150
sg111
I1
sg112
I1
sS'k'
I4
sg113
F0.29999999999999999
sg114
I6
stp473
a(g108
(dp474
g110
I150
sg111
I1
sg112
I1
sS'k'
I4
sg113
F0.5
sg114
I3
stp475
a(g108
(dp476
g110
I150
sg111
I1
sg112
I1
sS'k'
I4
sg113
F0.5
sg114
I4
stp477
a(g108
(dp478
g110
I150
sg111
I1
sg112
I1
sS'k'
I4
sg113
F0.5
sg114
I5
stp479
a(g108
(dp480
g110
I150
sg111
I1
sg112
I1
sS'k'
I4
sg113
F0.5
sg114
I6
stp481
a(g108
(dp482
g110
I150
sg111
I1
sg112
I2
sS'k'
I4
sg113
F0.29999999999999999
sg114
I3
stp483
a(g108
(dp484
g110
I150
sg111
I1
sg112
I2
sS'k'
I4
sg113
F0.29999999999999999
sg114
I4
stp485
a(g108
(dp486
g110
I150
sg111
I1
sg112
I2
sS'k'
I4
sg113
F0.29999999999999999
sg114
I5
stp487
a(g108
(dp488
g110
I150
sg111
I1
sg112
I2
sS'k'
I4
sg113
F0.29999999999999999
sg114
I6
stp489
a(g108
(dp490
g110
I150
sg111
I1
sg112
I2
sS'k'
I4
sg113
F0.5
sg114
I3
stp491
a(g108
(dp492
g110
I150
sg111
I1
sg112
I2
sS'k'
I4
sg113
F0.5
sg114
I4
stp493
a(g108
(dp494
g110
I150
sg111
I1
sg112
I2
sS'k'
I4
sg113
F0.5
sg114
I5
stp495
a(g108
(dp496
g110
I150
sg111
I1
sg112
I2
sS'k'
I4
sg113
F0.5
sg114
I6
stp497
a(g108
(dp498
g110
I150
sg111
I1
sg112
I1
sS'k'
I5
sg113
F0.29999999999999999
sg114
I3
stp499
a(g108
(dp500
g110
I150
sg111
I1
sg112
I1
sS'k'
I5
sg113
F0.29999999999999999
sg114
I4
stp501
a(g108
(dp502
g110
I150
sg111
I1
sg112
I1
sS'k'
I5
sg113
F0.29999999999999999
sg114
I5
stp503
a(g108
(dp504
g110
I150
sg111
I1
sg112
I1
sS'k'
I5
sg113
F0.29999999999999999
sg114
I6
stp505
a(g108
(dp506
g110
I150
sg111
I1
sg112
I1
sS'k'
I5
sg113
F0.5
sg114
I3
stp507
a(g108
(dp508
g110
I150
sg111
I1
sg112
I1
sS'k'
I5
sg113
F0.5
sg114
I4
stp509
a(g108
(dp510
g110
I150
sg111
I1
sg112
I1
sS'k'
I5
sg113
F0.5
sg114
I5
stp511
a(g108
(dp512
g110
I150
sg111
I1
sg112
I1
sS'k'
I5
sg113
F0.5
sg114
I6
stp513
a(g108
(dp514
g110
I150
sg111
I1
sg112
I2
sS'k'
I5
sg113
F0.29999999999999999
sg114
I3
stp515
a(g108
(dp516
g110
I150
sg111
I1
sg112
I2
sS'k'
I5
sg113
F0.29999999999999999
sg114
I4
stp517
a(g108
(dp518
g110
I150
sg111
I1
sg112
I2
sS'k'
I5
sg113
F0.29999999999999999
sg114
I5
stp519
a(g108
(dp520
g110
I150
sg111
I1
sg112
I2
sS'k'
I5
sg113
F0.29999999999999999
sg114
I6
stp521
a(g108
(dp522
g110
I150
sg111
I1
sg112
I2
sS'k'
I5
sg113
F0.5
sg114
I3
stp523
a(g108
(dp524
g110
I150
sg111
I1
sg112
I2
sS'k'
I5
sg113
F0.5
sg114
I4
stp525
a(g108
(dp526
g110
I150
sg111
I1
sg112
I2
sS'k'
I5
sg113
F0.5
sg114
I5
stp527
a(g108
(dp528
g110
I150
sg111
I1
sg112
I2
sS'k'
I5
sg113
F0.5
sg114
I6
stp529
a(g108
(dp530
g110
I150
sg111
I1
sg112
I1
sS'k'
I6
sg113
F0.29999999999999999
sg114
I3
stp531
a(g108
(dp532
g110
I150
sg111
I1
sg112
I1
sS'k'
I6
sg113
F0.29999999999999999
sg114
I4
stp533
a(g108
(dp534
g110
I150
sg111
I1
sg112
I1
sS'k'
I6
sg113
F0.29999999999999999
sg114
I5
stp535
a(g108
(dp536
g110
I150
sg111
I1
sg112
I1
sS'k'
I6
sg113
F0.29999999999999999
sg114
I6
stp537
a(g108
(dp538
g110
I150
sg111
I1
sg112
I1
sS'k'
I6
sg113
F0.5
sg114
I3
stp539
a(g108
(dp540
g110
I150
sg111
I1
sg112
I1
sS'k'
I6
sg113
F0.5
sg114
I4
stp541
a(g108
(dp542
g110
I150
sg111
I1
sg112
I1
sS'k'
I6
sg113
F0.5
sg114
I5
stp543
a(g108
(dp544
g110
I150
sg111
I1
sg112
I1
sS'k'
I6
sg113
F0.5
sg114
I6
stp545
a(g108
(dp546
g110
I150
sg111
I1
sg112
I2
sS'k'
I6
sg113
F0.29999999999999999
sg114
I3
stp547
a(g108
(dp548
g110
I150
sg111
I1
sg112
I2
sS'k'
I6
sg113
F0.29999999999999999
sg114
I4
stp549
a(g108
(dp550
g110
I150
sg111
I1
sg112
I2
sS'k'
I6
sg113
F0.29999999999999999
sg114
I5
stp551
a(g108
(dp552
g110
I150
sg111
I1
sg112
I2
sS'k'
I6
sg113
F0.29999999999999999
sg114
I6
stp553
a(g108
(dp554
g110
I150
sg111
I1
sg112
I2
sS'k'
I6
sg113
F0.5
sg114
I3
stp555
a(g108
(dp556
g110
I150
sg111
I1
sg112
I2
sS'k'
I6
sg113
F0.5
sg114
I4
stp557
a(g108
(dp558
g110
I150
sg111
I1
sg112
I2
sS'k'
I6
sg113
F0.5
sg114
I5
stp559
a(g108
(dp560
g110
I150
sg111
I1
sg112
I2
sS'k'
I6
sg113
F0.5
sg114
I6
stp561
a(g108
(dp562
g110
I150
sg111
I1
sg112
I1
sS'k'
I7
sg113
F0.29999999999999999
sg114
I3
stp563
a(g108
(dp564
g110
I150
sg111
I1
sg112
I1
sS'k'
I7
sg113
F0.29999999999999999
sg114
I4
stp565
a(g108
(dp566
g110
I150
sg111
I1
sg112
I1
sS'k'
I7
sg113
F0.29999999999999999
sg114
I5
stp567
a(g108
(dp568
g110
I150
sg111
I1
sg112
I1
sS'k'
I7
sg113
F0.29999999999999999
sg114
I6
stp569
a(g108
(dp570
g110
I150
sg111
I1
sg112
I1
sS'k'
I7
sg113
F0.5
sg114
I3
stp571
a(g108
(dp572
g110
I150
sg111
I1
sg112
I1
sS'k'
I7
sg113
F0.5
sg114
I4
stp573
a(g108
(dp574
g110
I150
sg111
I1
sg112
I1
sS'k'
I7
sg113
F0.5
sg114
I5
stp575
a(g108
(dp576
g110
I150
sg111
I1
sg112
I1
sS'k'
I7
sg113
F0.5
sg114
I6
stp577
a(g108
(dp578
g110
I150
sg111
I1
sg112
I2
sS'k'
I7
sg113
F0.29999999999999999
sg114
I3
stp579
a(g108
(dp580
g110
I150
sg111
I1
sg112
I2
sS'k'
I7
sg113
F0.29999999999999999
sg114
I4
stp581
a(g108
(dp582
g110
I150
sg111
I1
sg112
I2
sS'k'
I7
sg113
F0.29999999999999999
sg114
I5
stp583
a(g108
(dp584
g110
I150
sg111
I1
sg112
I2
sS'k'
I7
sg113
F0.29999999999999999
sg114
I6
stp585
a(g108
(dp586
g110
I150
sg111
I1
sg112
I2
sS'k'
I7
sg113
F0.5
sg114
I3
stp587
a(g108
(dp588
g110
I150
sg111
I1
sg112
I2
sS'k'
I7
sg113
F0.5
sg114
I4
stp589
a(g108
(dp590
g110
I150
sg111
I1
sg112
I2
sS'k'
I7
sg113
F0.5
sg114
I5
stp591
a(g108
(dp592
g110
I150
sg111
I1
sg112
I2
sS'k'
I7
sg113
F0.5
sg114
I6
stp593
a(g108
(dp594
g110
I150
sg111
I1
sg112
I1
sS'k'
I8
sg113
F0.29999999999999999
sg114
I3
stp595
a(g108
(dp596
g110
I150
sg111
I1
sg112
I1
sS'k'
I8
sg113
F0.29999999999999999
sg114
I4
stp597
a(g108
(dp598
g110
I150
sg111
I1
sg112
I1
sS'k'
I8
sg113
F0.29999999999999999
sg114
I5
stp599
a(g108
(dp600
g110
I150
sg111
I1
sg112
I1
sS'k'
I8
sg113
F0.29999999999999999
sg114
I6
stp601
a(g108
(dp602
g110
I150
sg111
I1
sg112
I1
sS'k'
I8
sg113
F0.5
sg114
I3
stp603
a(g108
(dp604
g110
I150
sg111
I1
sg112
I1
sS'k'
I8
sg113
F0.5
sg114
I4
stp605
a(g108
(dp606
g110
I150
sg111
I1
sg112
I1
sS'k'
I8
sg113
F0.5
sg114
I5
stp607
a(g108
(dp608
g110
I150
sg111
I1
sg112
I1
sS'k'
I8
sg113
F0.5
sg114
I6
stp609
a(g108
(dp610
g110
I150
sg111
I1
sg112
I2
sS'k'
I8
sg113
F0.29999999999999999
sg114
I3
stp611
a(g108
(dp612
g110
I150
sg111
I1
sg112
I2
sS'k'
I8
sg113
F0.29999999999999999
sg114
I4
stp613
a(g108
(dp614
g110
I150
sg111
I1
sg112
I2
sS'k'
I8
sg113
F0.29999999999999999
sg114
I5
stp615
a(g108
(dp616
g110
I150
sg111
I1
sg112
I2
sS'k'
I8
sg113
F0.29999999999999999
sg114
I6
stp617
a(g108
(dp618
g110
I150
sg111
I1
sg112
I2
sS'k'
I8
sg113
F0.5
sg114
I3
stp619
a(g108
(dp620
g110
I150
sg111
I1
sg112
I2
sS'k'
I8
sg113
F0.5
sg114
I4
stp621
a(g108
(dp622
g110
I150
sg111
I1
sg112
I2
sS'k'
I8
sg113
F0.5
sg114
I5
stp623
a(g108
(dp624
g110
I150
sg111
I1
sg112
I2
sS'k'
I8
sg113
F0.5
sg114
I6
stp625
a(g108
(dp626
g110
I150
sg111
I1
sg112
I1
sS'k'
I9
sg113
F0.29999999999999999
sg114
I3
stp627
a(g108
(dp628
g110
I150
sg111
I1
sg112
I1
sS'k'
I9
sg113
F0.29999999999999999
sg114
I4
stp629
a(g108
(dp630
g110
I150
sg111
I1
sg112
I1
sS'k'
I9
sg113
F0.29999999999999999
sg114
I5
stp631
a(g108
(dp632
g110
I150
sg111
I1
sg112
I1
sS'k'
I9
sg113
F0.29999999999999999
sg114
I6
stp633
a(g108
(dp634
g110
I150
sg111
I1
sg112
I1
sS'k'
I9
sg113
F0.5
sg114
I3
stp635
a(g108
(dp636
g110
I150
sg111
I1
sg112
I1
sS'k'
I9
sg113
F0.5
sg114
I4
stp637
a(g108
(dp638
g110
I150
sg111
I1
sg112
I1
sS'k'
I9
sg113
F0.5
sg114
I5
stp639
a(g108
(dp640
g110
I150
sg111
I1
sg112
I1
sS'k'
I9
sg113
F0.5
sg114
I6
stp641
a(g108
(dp642
g110
I150
sg111
I1
sg112
I2
sS'k'
I9
sg113
F0.29999999999999999
sg114
I3
stp643
a(g108
(dp644
g110
I150
sg111
I1
sg112
I2
sS'k'
I9
sg113
F0.29999999999999999
sg114
I4
stp645
a(g108
(dp646
g110
I150
sg111
I1
sg112
I2
sS'k'
I9
sg113
F0.29999999999999999
sg114
I5
stp647
a(g108
(dp648
g110
I150
sg111
I1
sg112
I2
sS'k'
I9
sg113
F0.29999999999999999
sg114
I6
stp649
a(g108
(dp650
g110
I150
sg111
I1
sg112
I2
sS'k'
I9
sg113
F0.5
sg114
I3
stp651
a(g108
(dp652
g110
I150
sg111
I1
sg112
I2
sS'k'
I9
sg113
F0.5
sg114
I4
stp653
a(g108
(dp654
g110
I150
sg111
I1
sg112
I2
sS'k'
I9
sg113
F0.5
sg114
I5
stp655
a(g108
(dp656
g110
I150
sg111
I1
sg112
I2
sS'k'
I9
sg113
F0.5
sg114
I6
stp657
a(g108
(dp658
g110
I150
sg111
I1
sg112
I1
sS'k'
I10
sg113
F0.29999999999999999
sg114
I3
stp659
a(g108
(dp660
g110
I150
sg111
I1
sg112
I1
sS'k'
I10
sg113
F0.29999999999999999
sg114
I4
stp661
a(g108
(dp662
g110
I150
sg111
I1
sg112
I1
sS'k'
I10
sg113
F0.29999999999999999
sg114
I5
stp663
a(g108
(dp664
g110
I150
sg111
I1
sg112
I1
sS'k'
I10
sg113
F0.29999999999999999
sg114
I6
stp665
a(g108
(dp666
g110
I150
sg111
I1
sg112
I1
sS'k'
I10
sg113
F0.5
sg114
I3
stp667
a(g108
(dp668
g110
I150
sg111
I1
sg112
I1
sS'k'
I10
sg113
F0.5
sg114
I4
stp669
a(g108
(dp670
g110
I150
sg111
I1
sg112
I1
sS'k'
I10
sg113
F0.5
sg114
I5
stp671
a(g108
(dp672
g110
I150
sg111
I1
sg112
I1
sS'k'
I10
sg113
F0.5
sg114
I6
stp673
a(g108
(dp674
g110
I150
sg111
I1
sg112
I2
sS'k'
I10
sg113
F0.29999999999999999
sg114
I3
stp675
a(g108
(dp676
g110
I150
sg111
I1
sg112
I2
sS'k'
I10
sg113
F0.29999999999999999
sg114
I4
stp677
a(g108
(dp678
g110
I150
sg111
I1
sg112
I2
sS'k'
I10
sg113
F0.29999999999999999
sg114
I5
stp679
a(g108
(dp680
g110
I150
sg111
I1
sg112
I2
sS'k'
I10
sg113
F0.29999999999999999
sg114
I6
stp681
a(g108
(dp682
g110
I150
sg111
I1
sg112
I2
sS'k'
I10
sg113
F0.5
sg114
I3
stp683
a(g108
(dp684
g110
I150
sg111
I1
sg112
I2
sS'k'
I10
sg113
F0.5
sg114
I4
stp685
a(g108
(dp686
g110
I150
sg111
I1
sg112
I2
sS'k'
I10
sg113
F0.5
sg114
I5
stp687
a(g108
(dp688
g110
I150
sg111
I1
sg112
I2
sS'k'
I10
sg113
F0.5
sg114
I6
stp689
a(g108
(dp690
g110
I150
sg111
F1.5
sg112
I1
sS'k'
I2
sg113
F0.29999999999999999
sg114
I3
stp691
a(g108
(dp692
g110
I150
sg111
F1.5
sg112
I1
sS'k'
I2
sg113
F0.29999999999999999
sg114
I4
stp693
a(g108
(dp694
g110
I150
sg111
F1.5
sg112
I1
sS'k'
I2
sg113
F0.29999999999999999
sg114
I5
stp695
a(g108
(dp696
g110
I150
sg111
F1.5
sg112
I1
sS'k'
I2
sg113
F0.29999999999999999
sg114
I6
stp697
a(g108
(dp698
g110
I150
sg111
F1.5
sg112
I1
sS'k'
I2
sg113
F0.5
sg114
I3
stp699
a(g108
(dp700
g110
I150
sg111
F1.5
sg112
I1
sS'k'
I2
sg113
F0.5
sg114
I4
stp701
a(g108
(dp702
g110
I150
sg111
F1.5
sg112
I1
sS'k'
I2
sg113
F0.5
sg114
I5
stp703
a(g108
(dp704
g110
I150
sg111
F1.5
sg112
I1
sS'k'
I2
sg113
F0.5
sg114
I6
stp705
a(g108
(dp706
g110
I150
sg111
F1.5
sg112
I2
sS'k'
I2
sg113
F0.29999999999999999
sg114
I3
stp707
a(g108
(dp708
g110
I150
sg111
F1.5
sg112
I2
sS'k'
I2
sg113
F0.29999999999999999
sg114
I4
stp709
a(g108
(dp710
g110
I150
sg111
F1.5
sg112
I2
sS'k'
I2
sg113
F0.29999999999999999
sg114
I5
stp711
a(g108
(dp712
g110
I150
sg111
F1.5
sg112
I2
sS'k'
I2
sg113
F0.29999999999999999
sg114
I6
stp713
a(g108
(dp714
g110
I150
sg111
F1.5
sg112
I2
sS'k'
I2
sg113
F0.5
sg114
I3
stp715
a(g108
(dp716
g110
I150
sg111
F1.5
sg112
I2
sS'k'
I2
sg113
F0.5
sg114
I4
stp717
a(g108
(dp718
g110
I150
sg111
F1.5
sg112
I2
sS'k'
I2
sg113
F0.5
sg114
I5
stp719
a(g108
(dp720
g110
I150
sg111
F1.5
sg112
I2
sS'k'
I2
sg113
F0.5
sg114
I6
stp721
a(g108
(dp722
g110
I150
sg111
F1.5
sg112
I1
sS'k'
I3
sg113
F0.29999999999999999
sg114
I3
stp723
a(g108
(dp724
g110
I150
sg111
F1.5
sg112
I1
sS'k'
I3
sg113
F0.29999999999999999
sg114
I4
stp725
a(g108
(dp726
g110
I150
sg111
F1.5
sg112
I1
sS'k'
I3
sg113
F0.29999999999999999
sg114
I5
stp727
a(g108
(dp728
g110
I150
sg111
F1.5
sg112
I1
sS'k'
I3
sg113
F0.29999999999999999
sg114
I6
stp729
a(g108
(dp730
g110
I150
sg111
F1.5
sg112
I1
sS'k'
I3
sg113
F0.5
sg114
I3
stp731
a(g108
(dp732
g110
I150
sg111
F1.5
sg112
I1
sS'k'
I3
sg113
F0.5
sg114
I4
stp733
a(g108
(dp734
g110
I150
sg111
F1.5
sg112
I1
sS'k'
I3
sg113
F0.5
sg114
I5
stp735
a(g108
(dp736
g110
I150
sg111
F1.5
sg112
I1
sS'k'
I3
sg113
F0.5
sg114
I6
stp737
a(g108
(dp738
g110
I150
sg111
F1.5
sg112
I2
sS'k'
I3
sg113
F0.29999999999999999
sg114
I3
stp739
a(g108
(dp740
g110
I150
sg111
F1.5
sg112
I2
sS'k'
I3
sg113
F0.29999999999999999
sg114
I4
stp741
a(g108
(dp742
g110
I150
sg111
F1.5
sg112
I2
sS'k'
I3
sg113
F0.29999999999999999
sg114
I5
stp743
a(g108
(dp744
g110
I150
sg111
F1.5
sg112
I2
sS'k'
I3
sg113
F0.29999999999999999
sg114
I6
stp745
a(g108
(dp746
g110
I150
sg111
F1.5
sg112
I2
sS'k'
I3
sg113
F0.5
sg114
I3
stp747
a(g108
(dp748
g110
I150
sg111
F1.5
sg112
I2
sS'k'
I3
sg113
F0.5
sg114
I4
stp749
a(g108
(dp750
g110
I150
sg111
F1.5
sg112
I2
sS'k'
I3
sg113
F0.5
sg114
I5
stp751
a(g108
(dp752
g110
I150
sg111
F1.5
sg112
I2
sS'k'
I3
sg113
F0.5
sg114
I6
stp753
a(g108
(dp754
g110
I150
sg111
F1.5
sg112
I1
sS'k'
I4
sg113
F0.29999999999999999
sg114
I3
stp755
a(g108
(dp756
g110
I150
sg111
F1.5
sg112
I1
sS'k'
I4
sg113
F0.29999999999999999
sg114
I4
stp757
a(g108
(dp758
g110
I150
sg111
F1.5
sg112
I1
sS'k'
I4
sg113
F0.29999999999999999
sg114
I5
stp759
a(g108
(dp760
g110
I150
sg111
F1.5
sg112
I1
sS'k'
I4
sg113
F0.29999999999999999
sg114
I6
stp761
a(g108
(dp762
g110
I150
sg111
F1.5
sg112
I1
sS'k'
I4
sg113
F0.5
sg114
I3
stp763
a(g108
(dp764
g110
I150
sg111
F1.5
sg112
I1
sS'k'
I4
sg113
F0.5
sg114
I4
stp765
a(g108
(dp766
g110
I150
sg111
F1.5
sg112
I1
sS'k'
I4
sg113
F0.5
sg114
I5
stp767
a(g108
(dp768
g110
I150
sg111
F1.5
sg112
I1
sS'k'
I4
sg113
F0.5
sg114
I6
stp769
a(g108
(dp770
g110
I150
sg111
F1.5
sg112
I2
sS'k'
I4
sg113
F0.29999999999999999
sg114
I3
stp771
a(g108
(dp772
g110
I150
sg111
F1.5
sg112
I2
sS'k'
I4
sg113
F0.29999999999999999
sg114
I4
stp773
a(g108
(dp774
g110
I150
sg111
F1.5
sg112
I2
sS'k'
I4
sg113
F0.29999999999999999
sg114
I5
stp775
a(g108
(dp776
g110
I150
sg111
F1.5
sg112
I2
sS'k'
I4
sg113
F0.29999999999999999
sg114
I6
stp777
a(g108
(dp778
g110
I150
sg111
F1.5
sg112
I2
sS'k'
I4
sg113
F0.5
sg114
I3
stp779
a(g108
(dp780
g110
I150
sg111
F1.5
sg112
I2
sS'k'
I4
sg113
F0.5
sg114
I4
stp781
a(g108
(dp782
g110
I150
sg111
F1.5
sg112
I2
sS'k'
I4
sg113
F0.5
sg114
I5
stp783
a(g108
(dp784
g110
I150
sg111
F1.5
sg112
I2
sS'k'
I4
sg113
F0.5
sg114
I6
stp785
a(g108
(dp786
g110
I150
sg111
F1.5
sg112
I1
sS'k'
I5
sg113
F0.29999999999999999
sg114
I3
stp787
a(g108
(dp788
g110
I150
sg111
F1.5
sg112
I1
sS'k'
I5
sg113
F0.29999999999999999
sg114
I4
stp789
a(g108
(dp790
g110
I150
sg111
F1.5
sg112
I1
sS'k'
I5
sg113
F0.29999999999999999
sg114
I5
stp791
a(g108
(dp792
g110
I150
sg111
F1.5
sg112
I1
sS'k'
I5
sg113
F0.29999999999999999
sg114
I6
stp793
a(g108
(dp794
g110
I150
sg111
F1.5
sg112
I1
sS'k'
I5
sg113
F0.5
sg114
I3
stp795
a(g108
(dp796
g110
I150
sg111
F1.5
sg112
I1
sS'k'
I5
sg113
F0.5
sg114
I4
stp797
a(g108
(dp798
g110
I150
sg111
F1.5
sg112
I1
sS'k'
I5
sg113
F0.5
sg114
I5
stp799
a(g108
(dp800
g110
I150
sg111
F1.5
sg112
I1
sS'k'
I5
sg113
F0.5
sg114
I6
stp801
a(g108
(dp802
g110
I150
sg111
F1.5
sg112
I2
sS'k'
I5
sg113
F0.29999999999999999
sg114
I3
stp803
a(g108
(dp804
g110
I150
sg111
F1.5
sg112
I2
sS'k'
I5
sg113
F0.29999999999999999
sg114
I4
stp805
a(g108
(dp806
g110
I150
sg111
F1.5
sg112
I2
sS'k'
I5
sg113
F0.29999999999999999
sg114
I5
stp807
a(g108
(dp808
g110
I150
sg111
F1.5
sg112
I2
sS'k'
I5
sg113
F0.29999999999999999
sg114
I6
stp809
a(g108
(dp810
g110
I150
sg111
F1.5
sg112
I2
sS'k'
I5
sg113
F0.5
sg114
I3
stp811
a(g108
(dp812
g110
I150
sg111
F1.5
sg112
I2
sS'k'
I5
sg113
F0.5
sg114
I4
stp813
a(g108
(dp814
g110
I150
sg111
F1.5
sg112
I2
sS'k'
I5
sg113
F0.5
sg114
I5
stp815
a(g108
(dp816
g110
I150
sg111
F1.5
sg112
I2
sS'k'
I5
sg113
F0.5
sg114
I6
stp817
a(g108
(dp818
g110
I150
sg111
F1.5
sg112
I1
sS'k'
I6
sg113
F0.29999999999999999
sg114
I3
stp819
a(g108
(dp820
g110
I150
sg111
F1.5
sg112
I1
sS'k'
I6
sg113
F0.29999999999999999
sg114
I4
stp821
a(g108
(dp822
g110
I150
sg111
F1.5
sg112
I1
sS'k'
I6
sg113
F0.29999999999999999
sg114
I5
stp823
a(g108
(dp824
g110
I150
sg111
F1.5
sg112
I1
sS'k'
I6
sg113
F0.29999999999999999
sg114
I6
stp825
a(g108
(dp826
g110
I150
sg111
F1.5
sg112
I1
sS'k'
I6
sg113
F0.5
sg114
I3
stp827
a(g108
(dp828
g110
I150
sg111
F1.5
sg112
I1
sS'k'
I6
sg113
F0.5
sg114
I4
stp829
a(g108
(dp830
g110
I150
sg111
F1.5
sg112
I1
sS'k'
I6
sg113
F0.5
sg114
I5
stp831
a(g108
(dp832
g110
I150
sg111
F1.5
sg112
I1
sS'k'
I6
sg113
F0.5
sg114
I6
stp833
a(g108
(dp834
g110
I150
sg111
F1.5
sg112
I2
sS'k'
I6
sg113
F0.29999999999999999
sg114
I3
stp835
a(g108
(dp836
g110
I150
sg111
F1.5
sg112
I2
sS'k'
I6
sg113
F0.29999999999999999
sg114
I4
stp837
a(g108
(dp838
g110
I150
sg111
F1.5
sg112
I2
sS'k'
I6
sg113
F0.29999999999999999
sg114
I5
stp839
a(g108
(dp840
g110
I150
sg111
F1.5
sg112
I2
sS'k'
I6
sg113
F0.29999999999999999
sg114
I6
stp841
a(g108
(dp842
g110
I150
sg111
F1.5
sg112
I2
sS'k'
I6
sg113
F0.5
sg114
I3
stp843
a(g108
(dp844
g110
I150
sg111
F1.5
sg112
I2
sS'k'
I6
sg113
F0.5
sg114
I4
stp845
a(g108
(dp846
g110
I150
sg111
F1.5
sg112
I2
sS'k'
I6
sg113
F0.5
sg114
I5
stp847
a(g108
(dp848
g110
I150
sg111
F1.5
sg112
I2
sS'k'
I6
sg113
F0.5
sg114
I6
stp849
a(g108
(dp850
g110
I150
sg111
F1.5
sg112
I1
sS'k'
I7
sg113
F0.29999999999999999
sg114
I3
stp851
a(g108
(dp852
g110
I150
sg111
F1.5
sg112
I1
sS'k'
I7
sg113
F0.29999999999999999
sg114
I4
stp853
a(g108
(dp854
g110
I150
sg111
F1.5
sg112
I1
sS'k'
I7
sg113
F0.29999999999999999
sg114
I5
stp855
a(g108
(dp856
g110
I150
sg111
F1.5
sg112
I1
sS'k'
I7
sg113
F0.29999999999999999
sg114
I6
stp857
a(g108
(dp858
g110
I150
sg111
F1.5
sg112
I1
sS'k'
I7
sg113
F0.5
sg114
I3
stp859
a(g108
(dp860
g110
I150
sg111
F1.5
sg112
I1
sS'k'
I7
sg113
F0.5
sg114
I4
stp861
a(g108
(dp862
g110
I150
sg111
F1.5
sg112
I1
sS'k'
I7
sg113
F0.5
sg114
I5
stp863
a(g108
(dp864
g110
I150
sg111
F1.5
sg112
I1
sS'k'
I7
sg113
F0.5
sg114
I6
stp865
a(g108
(dp866
g110
I150
sg111
F1.5
sg112
I2
sS'k'
I7
sg113
F0.29999999999999999
sg114
I3
stp867
a(g108
(dp868
g110
I150
sg111
F1.5
sg112
I2
sS'k'
I7
sg113
F0.29999999999999999
sg114
I4
stp869
a(g108
(dp870
g110
I150
sg111
F1.5
sg112
I2
sS'k'
I7
sg113
F0.29999999999999999
sg114
I5
stp871
a(g108
(dp872
g110
I150
sg111
F1.5
sg112
I2
sS'k'
I7
sg113
F0.29999999999999999
sg114
I6
stp873
a(g108
(dp874
g110
I150
sg111
F1.5
sg112
I2
sS'k'
I7
sg113
F0.5
sg114
I3
stp875
a(g108
(dp876
g110
I150
sg111
F1.5
sg112
I2
sS'k'
I7
sg113
F0.5
sg114
I4
stp877
a(g108
(dp878
g110
I150
sg111
F1.5
sg112
I2
sS'k'
I7
sg113
F0.5
sg114
I5
stp879
a(g108
(dp880
g110
I150
sg111
F1.5
sg112
I2
sS'k'
I7
sg113
F0.5
sg114
I6
stp881
a(g108
(dp882
g110
I150
sg111
F1.5
sg112
I1
sS'k'
I8
sg113
F0.29999999999999999
sg114
I3
stp883
a(g108
(dp884
g110
I150
sg111
F1.5
sg112
I1
sS'k'
I8
sg113
F0.29999999999999999
sg114
I4
stp885
a(g108
(dp886
g110
I150
sg111
F1.5
sg112
I1
sS'k'
I8
sg113
F0.29999999999999999
sg114
I5
stp887
a(g108
(dp888
g110
I150
sg111
F1.5
sg112
I1
sS'k'
I8
sg113
F0.29999999999999999
sg114
I6
stp889
a(g108
(dp890
g110
I150
sg111
F1.5
sg112
I1
sS'k'
I8
sg113
F0.5
sg114
I3
stp891
a(g108
(dp892
g110
I150
sg111
F1.5
sg112
I1
sS'k'
I8
sg113
F0.5
sg114
I4
stp893
a(g108
(dp894
g110
I150
sg111
F1.5
sg112
I1
sS'k'
I8
sg113
F0.5
sg114
I5
stp895
a(g108
(dp896
g110
I150
sg111
F1.5
sg112
I1
sS'k'
I8
sg113
F0.5
sg114
I6
stp897
a(g108
(dp898
g110
I150
sg111
F1.5
sg112
I2
sS'k'
I8
sg113
F0.29999999999999999
sg114
I3
stp899
a(g108
(dp900
g110
I150
sg111
F1.5
sg112
I2
sS'k'
I8
sg113
F0.29999999999999999
sg114
I4
stp901
a(g108
(dp902
g110
I150
sg111
F1.5
sg112
I2
sS'k'
I8
sg113
F0.29999999999999999
sg114
I5
stp903
a(g108
(dp904
g110
I150
sg111
F1.5
sg112
I2
sS'k'
I8
sg113
F0.29999999999999999
sg114
I6
stp905
a(g108
(dp906
g110
I150
sg111
F1.5
sg112
I2
sS'k'
I8
sg113
F0.5
sg114
I3
stp907
a(g108
(dp908
g110
I150
sg111
F1.5
sg112
I2
sS'k'
I8
sg113
F0.5
sg114
I4
stp909
a(g108
(dp910
g110
I150
sg111
F1.5
sg112
I2
sS'k'
I8
sg113
F0.5
sg114
I5
stp911
a(g108
(dp912
g110
I150
sg111
F1.5
sg112
I2
sS'k'
I8
sg113
F0.5
sg114
I6
stp913
a(g108
(dp914
g110
I150
sg111
F1.5
sg112
I1
sS'k'
I9
sg113
F0.29999999999999999
sg114
I3
stp915
a(g108
(dp916
g110
I150
sg111
F1.5
sg112
I1
sS'k'
I9
sg113
F0.29999999999999999
sg114
I4
stp917
a(g108
(dp918
g110
I150
sg111
F1.5
sg112
I1
sS'k'
I9
sg113
F0.29999999999999999
sg114
I5
stp919
a(g108
(dp920
g110
I150
sg111
F1.5
sg112
I1
sS'k'
I9
sg113
F0.29999999999999999
sg114
I6
stp921
a(g108
(dp922
g110
I150
sg111
F1.5
sg112
I1
sS'k'
I9
sg113
F0.5
sg114
I3
stp923
a(g108
(dp924
g110
I150
sg111
F1.5
sg112
I1
sS'k'
I9
sg113
F0.5
sg114
I4
stp925
a(g108
(dp926
g110
I150
sg111
F1.5
sg112
I1
sS'k'
I9
sg113
F0.5
sg114
I5
stp927
a(g108
(dp928
g110
I150
sg111
F1.5
sg112
I1
sS'k'
I9
sg113
F0.5
sg114
I6
stp929
a(g108
(dp930
g110
I150
sg111
F1.5
sg112
I2
sS'k'
I9
sg113
F0.29999999999999999
sg114
I3
stp931
a(g108
(dp932
g110
I150
sg111
F1.5
sg112
I2
sS'k'
I9
sg113
F0.29999999999999999
sg114
I4
stp933
a(g108
(dp934
g110
I150
sg111
F1.5
sg112
I2
sS'k'
I9
sg113
F0.29999999999999999
sg114
I5
stp935
a(g108
(dp936
g110
I150
sg111
F1.5
sg112
I2
sS'k'
I9
sg113
F0.29999999999999999
sg114
I6
stp937
a(g108
(dp938
g110
I150
sg111
F1.5
sg112
I2
sS'k'
I9
sg113
F0.5
sg114
I3
stp939
a(g108
(dp940
g110
I150
sg111
F1.5
sg112
I2
sS'k'
I9
sg113
F0.5
sg114
I4
stp941
a(g108
(dp942
g110
I150
sg111
F1.5
sg112
I2
sS'k'
I9
sg113
F0.5
sg114
I5
stp943
a(g108
(dp944
g110
I150
sg111
F1.5
sg112
I2
sS'k'
I9
sg113
F0.5
sg114
I6
stp945
a(g108
(dp946
g110
I150
sg111
F1.5
sg112
I1
sS'k'
I10
sg113
F0.29999999999999999
sg114
I3
stp947
a(g108
(dp948
g110
I150
sg111
F1.5
sg112
I1
sS'k'
I10
sg113
F0.29999999999999999
sg114
I4
stp949
a(g108
(dp950
g110
I150
sg111
F1.5
sg112
I1
sS'k'
I10
sg113
F0.29999999999999999
sg114
I5
stp951
a(g108
(dp952
g110
I150
sg111
F1.5
sg112
I1
sS'k'
I10
sg113
F0.29999999999999999
sg114
I6
stp953
a(g108
(dp954
g110
I150
sg111
F1.5
sg112
I1
sS'k'
I10
sg113
F0.5
sg114
I3
stp955
a(g108
(dp956
g110
I150
sg111
F1.5
sg112
I1
sS'k'
I10
sg113
F0.5
sg114
I4
stp957
a(g108
(dp958
g110
I150
sg111
F1.5
sg112
I1
sS'k'
I10
sg113
F0.5
sg114
I5
stp959
a(g108
(dp960
g110
I150
sg111
F1.5
sg112
I1
sS'k'
I10
sg113
F0.5
sg114
I6
stp961
a(g108
(dp962
g110
I150
sg111
F1.5
sg112
I2
sS'k'
I10
sg113
F0.29999999999999999
sg114
I3
stp963
a(g108
(dp964
g110
I150
sg111
F1.5
sg112
I2
sS'k'
I10
sg113
F0.29999999999999999
sg114
I4
stp965
a(g108
(dp966
g110
I150
sg111
F1.5
sg112
I2
sS'k'
I10
sg113
F0.29999999999999999
sg114
I5
stp967
a(g108
(dp968
g110
I150
sg111
F1.5
sg112
I2
sS'k'
I10
sg113
F0.29999999999999999
sg114
I6
stp969
a(g108
(dp970
g110
I150
sg111
F1.5
sg112
I2
sS'k'
I10
sg113
F0.5
sg114
I3
stp971
a(g108
(dp972
g110
I150
sg111
F1.5
sg112
I2
sS'k'
I10
sg113
F0.5
sg114
I4
stp973
a(g108
(dp974
g110
I150
sg111
F1.5
sg112
I2
sS'k'
I10
sg113
F0.5
sg114
I5
stp975
a(g108
(dp976
g110
I150
sg111
F1.5
sg112
I2
sS'k'
I10
sg113
F0.5
sg114
I6
stp977
a(g108
(dp978
g110
I150
sg111
I2
sg112
I1
sS'k'
I2
sg113
F0.29999999999999999
sg114
I3
stp979
a(g108
(dp980
g110
I150
sg111
I2
sg112
I1
sS'k'
I2
sg113
F0.29999999999999999
sg114
I4
stp981
a(g108
(dp982
g110
I150
sg111
I2
sg112
I1
sS'k'
I2
sg113
F0.29999999999999999
sg114
I5
stp983
a(g108
(dp984
g110
I150
sg111
I2
sg112
I1
sS'k'
I2
sg113
F0.29999999999999999
sg114
I6
stp985
a(g108
(dp986
g110
I150
sg111
I2
sg112
I1
sS'k'
I2
sg113
F0.5
sg114
I3
stp987
a(g108
(dp988
g110
I150
sg111
I2
sg112
I1
sS'k'
I2
sg113
F0.5
sg114
I4
stp989
a(g108
(dp990
g110
I150
sg111
I2
sg112
I1
sS'k'
I2
sg113
F0.5
sg114
I5
stp991
a(g108
(dp992
g110
I150
sg111
I2
sg112
I1
sS'k'
I2
sg113
F0.5
sg114
I6
stp993
a(g108
(dp994
g110
I150
sg111
I2
sg112
I2
sS'k'
I2
sg113
F0.29999999999999999
sg114
I3
stp995
a(g108
(dp996
g110
I150
sg111
I2
sg112
I2
sS'k'
I2
sg113
F0.29999999999999999
sg114
I4
stp997
a(g108
(dp998
g110
I150
sg111
I2
sg112
I2
sS'k'
I2
sg113
F0.29999999999999999
sg114
I5
stp999
a(g108
(dp1000
g110
I150
sg111
I2
sg112
I2
sS'k'
I2
sg113
F0.29999999999999999
sg114
I6
stp1001
a(g108
(dp1002
g110
I150
sg111
I2
sg112
I2
sS'k'
I2
sg113
F0.5
sg114
I3
stp1003
a(g108
(dp1004
g110
I150
sg111
I2
sg112
I2
sS'k'
I2
sg113
F0.5
sg114
I4
stp1005
a(g108
(dp1006
g110
I150
sg111
I2
sg112
I2
sS'k'
I2
sg113
F0.5
sg114
I5
stp1007
a(g108
(dp1008
g110
I150
sg111
I2
sg112
I2
sS'k'
I2
sg113
F0.5
sg114
I6
stp1009
a(g108
(dp1010
g110
I150
sg111
I2
sg112
I1
sS'k'
I3
sg113
F0.29999999999999999
sg114
I3
stp1011
a(g108
(dp1012
g110
I150
sg111
I2
sg112
I1
sS'k'
I3
sg113
F0.29999999999999999
sg114
I4
stp1013
a(g108
(dp1014
g110
I150
sg111
I2
sg112
I1
sS'k'
I3
sg113
F0.29999999999999999
sg114
I5
stp1015
a(g108
(dp1016
g110
I150
sg111
I2
sg112
I1
sS'k'
I3
sg113
F0.29999999999999999
sg114
I6
stp1017
a(g108
(dp1018
g110
I150
sg111
I2
sg112
I1
sS'k'
I3
sg113
F0.5
sg114
I3
stp1019
a(g108
(dp1020
g110
I150
sg111
I2
sg112
I1
sS'k'
I3
sg113
F0.5
sg114
I4
stp1021
a(g108
(dp1022
g110
I150
sg111
I2
sg112
I1
sS'k'
I3
sg113
F0.5
sg114
I5
stp1023
a(g108
(dp1024
g110
I150
sg111
I2
sg112
I1
sS'k'
I3
sg113
F0.5
sg114
I6
stp1025
a(g108
(dp1026
g110
I150
sg111
I2
sg112
I2
sS'k'
I3
sg113
F0.29999999999999999
sg114
I3
stp1027
a(g108
(dp1028
g110
I150
sg111
I2
sg112
I2
sS'k'
I3
sg113
F0.29999999999999999
sg114
I4
stp1029
a(g108
(dp1030
g110
I150
sg111
I2
sg112
I2
sS'k'
I3
sg113
F0.29999999999999999
sg114
I5
stp1031
a(g108
(dp1032
g110
I150
sg111
I2
sg112
I2
sS'k'
I3
sg113
F0.29999999999999999
sg114
I6
stp1033
a(g108
(dp1034
g110
I150
sg111
I2
sg112
I2
sS'k'
I3
sg113
F0.5
sg114
I3
stp1035
a(g108
(dp1036
g110
I150
sg111
I2
sg112
I2
sS'k'
I3
sg113
F0.5
sg114
I4
stp1037
a(g108
(dp1038
g110
I150
sg111
I2
sg112
I2
sS'k'
I3
sg113
F0.5
sg114
I5
stp1039
a(g108
(dp1040
g110
I150
sg111
I2
sg112
I2
sS'k'
I3
sg113
F0.5
sg114
I6
stp1041
a(g108
(dp1042
g110
I150
sg111
I2
sg112
I1
sS'k'
I4
sg113
F0.29999999999999999
sg114
I3
stp1043
a(g108
(dp1044
g110
I150
sg111
I2
sg112
I1
sS'k'
I4
sg113
F0.29999999999999999
sg114
I4
stp1045
a(g108
(dp1046
g110
I150
sg111
I2
sg112
I1
sS'k'
I4
sg113
F0.29999999999999999
sg114
I5
stp1047
a(g108
(dp1048
g110
I150
sg111
I2
sg112
I1
sS'k'
I4
sg113
F0.29999999999999999
sg114
I6
stp1049
a(g108
(dp1050
g110
I150
sg111
I2
sg112
I1
sS'k'
I4
sg113
F0.5
sg114
I3
stp1051
a(g108
(dp1052
g110
I150
sg111
I2
sg112
I1
sS'k'
I4
sg113
F0.5
sg114
I4
stp1053
a(g108
(dp1054
g110
I150
sg111
I2
sg112
I1
sS'k'
I4
sg113
F0.5
sg114
I5
stp1055
a(g108
(dp1056
g110
I150
sg111
I2
sg112
I1
sS'k'
I4
sg113
F0.5
sg114
I6
stp1057
a(g108
(dp1058
g110
I150
sg111
I2
sg112
I2
sS'k'
I4
sg113
F0.29999999999999999
sg114
I3
stp1059
a(g108
(dp1060
g110
I150
sg111
I2
sg112
I2
sS'k'
I4
sg113
F0.29999999999999999
sg114
I4
stp1061
a(g108
(dp1062
g110
I150
sg111
I2
sg112
I2
sS'k'
I4
sg113
F0.29999999999999999
sg114
I5
stp1063
a(g108
(dp1064
g110
I150
sg111
I2
sg112
I2
sS'k'
I4
sg113
F0.29999999999999999
sg114
I6
stp1065
a(g108
(dp1066
g110
I150
sg111
I2
sg112
I2
sS'k'
I4
sg113
F0.5
sg114
I3
stp1067
a(g108
(dp1068
g110
I150
sg111
I2
sg112
I2
sS'k'
I4
sg113
F0.5
sg114
I4
stp1069
a(g108
(dp1070
g110
I150
sg111
I2
sg112
I2
sS'k'
I4
sg113
F0.5
sg114
I5
stp1071
a(g108
(dp1072
g110
I150
sg111
I2
sg112
I2
sS'k'
I4
sg113
F0.5
sg114
I6
stp1073
a(g108
(dp1074
g110
I150
sg111
I2
sg112
I1
sS'k'
I5
sg113
F0.29999999999999999
sg114
I3
stp1075
a(g108
(dp1076
g110
I150
sg111
I2
sg112
I1
sS'k'
I5
sg113
F0.29999999999999999
sg114
I4
stp1077
a(g108
(dp1078
g110
I150
sg111
I2
sg112
I1
sS'k'
I5
sg113
F0.29999999999999999
sg114
I5
stp1079
a(g108
(dp1080
g110
I150
sg111
I2
sg112
I1
sS'k'
I5
sg113
F0.29999999999999999
sg114
I6
stp1081
a(g108
(dp1082
g110
I150
sg111
I2
sg112
I1
sS'k'
I5
sg113
F0.5
sg114
I3
stp1083
a(g108
(dp1084
g110
I150
sg111
I2
sg112
I1
sS'k'
I5
sg113
F0.5
sg114
I4
stp1085
a(g108
(dp1086
g110
I150
sg111
I2
sg112
I1
sS'k'
I5
sg113
F0.5
sg114
I5
stp1087
a(g108
(dp1088
g110
I150
sg111
I2
sg112
I1
sS'k'
I5
sg113
F0.5
sg114
I6
stp1089
a(g108
(dp1090
g110
I150
sg111
I2
sg112
I2
sS'k'
I5
sg113
F0.29999999999999999
sg114
I3
stp1091
a(g108
(dp1092
g110
I150
sg111
I2
sg112
I2
sS'k'
I5
sg113
F0.29999999999999999
sg114
I4
stp1093
a(g108
(dp1094
g110
I150
sg111
I2
sg112
I2
sS'k'
I5
sg113
F0.29999999999999999
sg114
I5
stp1095
a(g108
(dp1096
g110
I150
sg111
I2
sg112
I2
sS'k'
I5
sg113
F0.29999999999999999
sg114
I6
stp1097
a(g108
(dp1098
g110
I150
sg111
I2
sg112
I2
sS'k'
I5
sg113
F0.5
sg114
I3
stp1099
a(g108
(dp1100
g110
I150
sg111
I2
sg112
I2
sS'k'
I5
sg113
F0.5
sg114
I4
stp1101
a(g108
(dp1102
g110
I150
sg111
I2
sg112
I2
sS'k'
I5
sg113
F0.5
sg114
I5
stp1103
a(g108
(dp1104
g110
I150
sg111
I2
sg112
I2
sS'k'
I5
sg113
F0.5
sg114
I6
stp1105
a(g108
(dp1106
g110
I150
sg111
I2
sg112
I1
sS'k'
I6
sg113
F0.29999999999999999
sg114
I3
stp1107
a(g108
(dp1108
g110
I150
sg111
I2
sg112
I1
sS'k'
I6
sg113
F0.29999999999999999
sg114
I4
stp1109
a(g108
(dp1110
g110
I150
sg111
I2
sg112
I1
sS'k'
I6
sg113
F0.29999999999999999
sg114
I5
stp1111
a(g108
(dp1112
g110
I150
sg111
I2
sg112
I1
sS'k'
I6
sg113
F0.29999999999999999
sg114
I6
stp1113
a(g108
(dp1114
g110
I150
sg111
I2
sg112
I1
sS'k'
I6
sg113
F0.5
sg114
I3
stp1115
a(g108
(dp1116
g110
I150
sg111
I2
sg112
I1
sS'k'
I6
sg113
F0.5
sg114
I4
stp1117
a(g108
(dp1118
g110
I150
sg111
I2
sg112
I1
sS'k'
I6
sg113
F0.5
sg114
I5
stp1119
a(g108
(dp1120
g110
I150
sg111
I2
sg112
I1
sS'k'
I6
sg113
F0.5
sg114
I6
stp1121
a(g108
(dp1122
g110
I150
sg111
I2
sg112
I2
sS'k'
I6
sg113
F0.29999999999999999
sg114
I3
stp1123
a(g108
(dp1124
g110
I150
sg111
I2
sg112
I2
sS'k'
I6
sg113
F0.29999999999999999
sg114
I4
stp1125
a(g108
(dp1126
g110
I150
sg111
I2
sg112
I2
sS'k'
I6
sg113
F0.29999999999999999
sg114
I5
stp1127
a(g108
(dp1128
g110
I150
sg111
I2
sg112
I2
sS'k'
I6
sg113
F0.29999999999999999
sg114
I6
stp1129
a(g108
(dp1130
g110
I150
sg111
I2
sg112
I2
sS'k'
I6
sg113
F0.5
sg114
I3
stp1131
a(g108
(dp1132
g110
I150
sg111
I2
sg112
I2
sS'k'
I6
sg113
F0.5
sg114
I4
stp1133
a(g108
(dp1134
g110
I150
sg111
I2
sg112
I2
sS'k'
I6
sg113
F0.5
sg114
I5
stp1135
a(g108
(dp1136
g110
I150
sg111
I2
sg112
I2
sS'k'
I6
sg113
F0.5
sg114
I6
stp1137
a(g108
(dp1138
g110
I150
sg111
I2
sg112
I1
sS'k'
I7
sg113
F0.29999999999999999
sg114
I3
stp1139
a(g108
(dp1140
g110
I150
sg111
I2
sg112
I1
sS'k'
I7
sg113
F0.29999999999999999
sg114
I4
stp1141
a(g108
(dp1142
g110
I150
sg111
I2
sg112
I1
sS'k'
I7
sg113
F0.29999999999999999
sg114
I5
stp1143
a(g108
(dp1144
g110
I150
sg111
I2
sg112
I1
sS'k'
I7
sg113
F0.29999999999999999
sg114
I6
stp1145
a(g108
(dp1146
g110
I150
sg111
I2
sg112
I1
sS'k'
I7
sg113
F0.5
sg114
I3
stp1147
a(g108
(dp1148
g110
I150
sg111
I2
sg112
I1
sS'k'
I7
sg113
F0.5
sg114
I4
stp1149
a(g108
(dp1150
g110
I150
sg111
I2
sg112
I1
sS'k'
I7
sg113
F0.5
sg114
I5
stp1151
a(g108
(dp1152
g110
I150
sg111
I2
sg112
I1
sS'k'
I7
sg113
F0.5
sg114
I6
stp1153
a(g108
(dp1154
g110
I150
sg111
I2
sg112
I2
sS'k'
I7
sg113
F0.29999999999999999
sg114
I3
stp1155
a(g108
(dp1156
g110
I150
sg111
I2
sg112
I2
sS'k'
I7
sg113
F0.29999999999999999
sg114
I4
stp1157
a(g108
(dp1158
g110
I150
sg111
I2
sg112
I2
sS'k'
I7
sg113
F0.29999999999999999
sg114
I5
stp1159
a(g108
(dp1160
g110
I150
sg111
I2
sg112
I2
sS'k'
I7
sg113
F0.29999999999999999
sg114
I6
stp1161
a(g108
(dp1162
g110
I150
sg111
I2
sg112
I2
sS'k'
I7
sg113
F0.5
sg114
I3
stp1163
a(g108
(dp1164
g110
I150
sg111
I2
sg112
I2
sS'k'
I7
sg113
F0.5
sg114
I4
stp1165
a(g108
(dp1166
g110
I150
sg111
I2
sg112
I2
sS'k'
I7
sg113
F0.5
sg114
I5
stp1167
a(g108
(dp1168
g110
I150
sg111
I2
sg112
I2
sS'k'
I7
sg113
F0.5
sg114
I6
stp1169
a(g108
(dp1170
g110
I150
sg111
I2
sg112
I1
sS'k'
I8
sg113
F0.29999999999999999
sg114
I3
stp1171
a(g108
(dp1172
g110
I150
sg111
I2
sg112
I1
sS'k'
I8
sg113
F0.29999999999999999
sg114
I4
stp1173
a(g108
(dp1174
g110
I150
sg111
I2
sg112
I1
sS'k'
I8
sg113
F0.29999999999999999
sg114
I5
stp1175
a(g108
(dp1176
g110
I150
sg111
I2
sg112
I1
sS'k'
I8
sg113
F0.29999999999999999
sg114
I6
stp1177
a(g108
(dp1178
g110
I150
sg111
I2
sg112
I1
sS'k'
I8
sg113
F0.5
sg114
I3
stp1179
a(g108
(dp1180
g110
I150
sg111
I2
sg112
I1
sS'k'
I8
sg113
F0.5
sg114
I4
stp1181
a(g108
(dp1182
g110
I150
sg111
I2
sg112
I1
sS'k'
I8
sg113
F0.5
sg114
I5
stp1183
a(g108
(dp1184
g110
I150
sg111
I2
sg112
I1
sS'k'
I8
sg113
F0.5
sg114
I6
stp1185
a(g108
(dp1186
g110
I150
sg111
I2
sg112
I2
sS'k'
I8
sg113
F0.29999999999999999
sg114
I3
stp1187
a(g108
(dp1188
g110
I150
sg111
I2
sg112
I2
sS'k'
I8
sg113
F0.29999999999999999
sg114
I4
stp1189
a(g108
(dp1190
g110
I150
sg111
I2
sg112
I2
sS'k'
I8
sg113
F0.29999999999999999
sg114
I5
stp1191
a(g108
(dp1192
g110
I150
sg111
I2
sg112
I2
sS'k'
I8
sg113
F0.29999999999999999
sg114
I6
stp1193
a(g108
(dp1194
g110
I150
sg111
I2
sg112
I2
sS'k'
I8
sg113
F0.5
sg114
I3
stp1195
a(g108
(dp1196
g110
I150
sg111
I2
sg112
I2
sS'k'
I8
sg113
F0.5
sg114
I4
stp1197
a(g108
(dp1198
g110
I150
sg111
I2
sg112
I2
sS'k'
I8
sg113
F0.5
sg114
I5
stp1199
a(g108
(dp1200
g110
I150
sg111
I2
sg112
I2
sS'k'
I8
sg113
F0.5
sg114
I6
stp1201
a(g108
(dp1202
g110
I150
sg111
I2
sg112
I1
sS'k'
I9
sg113
F0.29999999999999999
sg114
I3
stp1203
a(g108
(dp1204
g110
I150
sg111
I2
sg112
I1
sS'k'
I9
sg113
F0.29999999999999999
sg114
I4
stp1205
a(g108
(dp1206
g110
I150
sg111
I2
sg112
I1
sS'k'
I9
sg113
F0.29999999999999999
sg114
I5
stp1207
a(g108
(dp1208
g110
I150
sg111
I2
sg112
I1
sS'k'
I9
sg113
F0.29999999999999999
sg114
I6
stp1209
a(g108
(dp1210
g110
I150
sg111
I2
sg112
I1
sS'k'
I9
sg113
F0.5
sg114
I3
stp1211
a(g108
(dp1212
g110
I150
sg111
I2
sg112
I1
sS'k'
I9
sg113
F0.5
sg114
I4
stp1213
a(g108
(dp1214
g110
I150
sg111
I2
sg112
I1
sS'k'
I9
sg113
F0.5
sg114
I5
stp1215
a(g108
(dp1216
g110
I150
sg111
I2
sg112
I1
sS'k'
I9
sg113
F0.5
sg114
I6
stp1217
a(g108
(dp1218
g110
I150
sg111
I2
sg112
I2
sS'k'
I9
sg113
F0.29999999999999999
sg114
I3
stp1219
a(g108
(dp1220
g110
I150
sg111
I2
sg112
I2
sS'k'
I9
sg113
F0.29999999999999999
sg114
I4
stp1221
a(g108
(dp1222
g110
I150
sg111
I2
sg112
I2
sS'k'
I9
sg113
F0.29999999999999999
sg114
I5
stp1223
a(g108
(dp1224
g110
I150
sg111
I2
sg112
I2
sS'k'
I9
sg113
F0.29999999999999999
sg114
I6
stp1225
a(g108
(dp1226
g110
I150
sg111
I2
sg112
I2
sS'k'
I9
sg113
F0.5
sg114
I3
stp1227
a(g108
(dp1228
g110
I150
sg111
I2
sg112
I2
sS'k'
I9
sg113
F0.5
sg114
I4
stp1229
a(g108
(dp1230
g110
I150
sg111
I2
sg112
I2
sS'k'
I9
sg113
F0.5
sg114
I5
stp1231
a(g108
(dp1232
g110
I150
sg111
I2
sg112
I2
sS'k'
I9
sg113
F0.5
sg114
I6
stp1233
a(g108
(dp1234
g110
I150
sg111
I2
sg112
I1
sS'k'
I10
sg113
F0.29999999999999999
sg114
I3
stp1235
a(g108
(dp1236
g110
I150
sg111
I2
sg112
I1
sS'k'
I10
sg113
F0.29999999999999999
sg114
I4
stp1237
a(g108
(dp1238
g110
I150
sg111
I2
sg112
I1
sS'k'
I10
sg113
F0.29999999999999999
sg114
I5
stp1239
a(g108
(dp1240
g110
I150
sg111
I2
sg112
I1
sS'k'
I10
sg113
F0.29999999999999999
sg114
I6
stp1241
a(g108
(dp1242
g110
I150
sg111
I2
sg112
I1
sS'k'
I10
sg113
F0.5
sg114
I3
stp1243
a(g108
(dp1244
g110
I150
sg111
I2
sg112
I1
sS'k'
I10
sg113
F0.5
sg114
I4
stp1245
a(g108
(dp1246
g110
I150
sg111
I2
sg112
I1
sS'k'
I10
sg113
F0.5
sg114
I5
stp1247
a(g108
(dp1248
g110
I150
sg111
I2
sg112
I1
sS'k'
I10
sg113
F0.5
sg114
I6
stp1249
a(g108
(dp1250
g110
I150
sg111
I2
sg112
I2
sS'k'
I10
sg113
F0.29999999999999999
sg114
I3
stp1251
a(g108
(dp1252
g110
I150
sg111
I2
sg112
I2
sS'k'
I10
sg113
F0.29999999999999999
sg114
I4
stp1253
a(g108
(dp1254
g110
I150
sg111
I2
sg112
I2
sS'k'
I10
sg113
F0.29999999999999999
sg114
I5
stp1255
a(g108
(dp1256
g110
I150
sg111
I2
sg112
I2
sS'k'
I10
sg113
F0.29999999999999999
sg114
I6
stp1257
a(g108
(dp1258
g110
I150
sg111
I2
sg112
I2
sS'k'
I10
sg113
F0.5
sg114
I3
stp1259
a(g108
(dp1260
g110
I150
sg111
I2
sg112
I2
sS'k'
I10
sg113
F0.5
sg114
I4
stp1261
a(g108
(dp1262
g110
I150
sg111
I2
sg112
I2
sS'k'
I10
sg113
F0.5
sg114
I5
stp1263
a(g108
(dp1264
g110
I150
sg111
I2
sg112
I2
sS'k'
I10
sg113
F0.5
sg114
I6
stp1265
a(g108
(dp1266
g110
I150
sg111
F2.5
sg112
I1
sS'k'
I2
sg113
F0.29999999999999999
sg114
I3
stp1267
a(g108
(dp1268
g110
I150
sg111
F2.5
sg112
I1
sS'k'
I2
sg113
F0.29999999999999999
sg114
I4
stp1269
a(g108
(dp1270
g110
I150
sg111
F2.5
sg112
I1
sS'k'
I2
sg113
F0.29999999999999999
sg114
I5
stp1271
a(g108
(dp1272
g110
I150
sg111
F2.5
sg112
I1
sS'k'
I2
sg113
F0.29999999999999999
sg114
I6
stp1273
a(g108
(dp1274
g110
I150
sg111
F2.5
sg112
I1
sS'k'
I2
sg113
F0.5
sg114
I3
stp1275
a(g108
(dp1276
g110
I150
sg111
F2.5
sg112
I1
sS'k'
I2
sg113
F0.5
sg114
I4
stp1277
a(g108
(dp1278
g110
I150
sg111
F2.5
sg112
I1
sS'k'
I2
sg113
F0.5
sg114
I5
stp1279
a(g108
(dp1280
g110
I150
sg111
F2.5
sg112
I1
sS'k'
I2
sg113
F0.5
sg114
I6
stp1281
a(g108
(dp1282
g110
I150
sg111
F2.5
sg112
I2
sS'k'
I2
sg113
F0.29999999999999999
sg114
I3
stp1283
a(g108
(dp1284
g110
I150
sg111
F2.5
sg112
I2
sS'k'
I2
sg113
F0.29999999999999999
sg114
I4
stp1285
a(g108
(dp1286
g110
I150
sg111
F2.5
sg112
I2
sS'k'
I2
sg113
F0.29999999999999999
sg114
I5
stp1287
a(g108
(dp1288
g110
I150
sg111
F2.5
sg112
I2
sS'k'
I2
sg113
F0.29999999999999999
sg114
I6
stp1289
a(g108
(dp1290
g110
I150
sg111
F2.5
sg112
I2
sS'k'
I2
sg113
F0.5
sg114
I3
stp1291
a(g108
(dp1292
g110
I150
sg111
F2.5
sg112
I2
sS'k'
I2
sg113
F0.5
sg114
I4
stp1293
a(g108
(dp1294
g110
I150
sg111
F2.5
sg112
I2
sS'k'
I2
sg113
F0.5
sg114
I5
stp1295
a(g108
(dp1296
g110
I150
sg111
F2.5
sg112
I2
sS'k'
I2
sg113
F0.5
sg114
I6
stp1297
a(g108
(dp1298
g110
I150
sg111
F2.5
sg112
I1
sS'k'
I3
sg113
F0.29999999999999999
sg114
I3
stp1299
a(g108
(dp1300
g110
I150
sg111
F2.5
sg112
I1
sS'k'
I3
sg113
F0.29999999999999999
sg114
I4
stp1301
a(g108
(dp1302
g110
I150
sg111
F2.5
sg112
I1
sS'k'
I3
sg113
F0.29999999999999999
sg114
I5
stp1303
a(g108
(dp1304
g110
I150
sg111
F2.5
sg112
I1
sS'k'
I3
sg113
F0.29999999999999999
sg114
I6
stp1305
a(g108
(dp1306
g110
I150
sg111
F2.5
sg112
I1
sS'k'
I3
sg113
F0.5
sg114
I3
stp1307
a(g108
(dp1308
g110
I150
sg111
F2.5
sg112
I1
sS'k'
I3
sg113
F0.5
sg114
I4
stp1309
a(g108
(dp1310
g110
I150
sg111
F2.5
sg112
I1
sS'k'
I3
sg113
F0.5
sg114
I5
stp1311
a(g108
(dp1312
g110
I150
sg111
F2.5
sg112
I1
sS'k'
I3
sg113
F0.5
sg114
I6
stp1313
a(g108
(dp1314
g110
I150
sg111
F2.5
sg112
I2
sS'k'
I3
sg113
F0.29999999999999999
sg114
I3
stp1315
a(g108
(dp1316
g110
I150
sg111
F2.5
sg112
I2
sS'k'
I3
sg113
F0.29999999999999999
sg114
I4
stp1317
a(g108
(dp1318
g110
I150
sg111
F2.5
sg112
I2
sS'k'
I3
sg113
F0.29999999999999999
sg114
I5
stp1319
a(g108
(dp1320
g110
I150
sg111
F2.5
sg112
I2
sS'k'
I3
sg113
F0.29999999999999999
sg114
I6
stp1321
a(g108
(dp1322
g110
I150
sg111
F2.5
sg112
I2
sS'k'
I3
sg113
F0.5
sg114
I3
stp1323
a(g108
(dp1324
g110
I150
sg111
F2.5
sg112
I2
sS'k'
I3
sg113
F0.5
sg114
I4
stp1325
a(g108
(dp1326
g110
I150
sg111
F2.5
sg112
I2
sS'k'
I3
sg113
F0.5
sg114
I5
stp1327
a(g108
(dp1328
g110
I150
sg111
F2.5
sg112
I2
sS'k'
I3
sg113
F0.5
sg114
I6
stp1329
a(g108
(dp1330
g110
I150
sg111
F2.5
sg112
I1
sS'k'
I4
sg113
F0.29999999999999999
sg114
I3
stp1331
a(g108
(dp1332
g110
I150
sg111
F2.5
sg112
I1
sS'k'
I4
sg113
F0.29999999999999999
sg114
I4
stp1333
a(g108
(dp1334
g110
I150
sg111
F2.5
sg112
I1
sS'k'
I4
sg113
F0.29999999999999999
sg114
I5
stp1335
a(g108
(dp1336
g110
I150
sg111
F2.5
sg112
I1
sS'k'
I4
sg113
F0.29999999999999999
sg114
I6
stp1337
a(g108
(dp1338
g110
I150
sg111
F2.5
sg112
I1
sS'k'
I4
sg113
F0.5
sg114
I3
stp1339
a(g108
(dp1340
g110
I150
sg111
F2.5
sg112
I1
sS'k'
I4
sg113
F0.5
sg114
I4
stp1341
a(g108
(dp1342
g110
I150
sg111
F2.5
sg112
I1
sS'k'
I4
sg113
F0.5
sg114
I5
stp1343
a(g108
(dp1344
g110
I150
sg111
F2.5
sg112
I1
sS'k'
I4
sg113
F0.5
sg114
I6
stp1345
a(g108
(dp1346
g110
I150
sg111
F2.5
sg112
I2
sS'k'
I4
sg113
F0.29999999999999999
sg114
I3
stp1347
a(g108
(dp1348
g110
I150
sg111
F2.5
sg112
I2
sS'k'
I4
sg113
F0.29999999999999999
sg114
I4
stp1349
a(g108
(dp1350
g110
I150
sg111
F2.5
sg112
I2
sS'k'
I4
sg113
F0.29999999999999999
sg114
I5
stp1351
a(g108
(dp1352
g110
I150
sg111
F2.5
sg112
I2
sS'k'
I4
sg113
F0.29999999999999999
sg114
I6
stp1353
a(g108
(dp1354
g110
I150
sg111
F2.5
sg112
I2
sS'k'
I4
sg113
F0.5
sg114
I3
stp1355
a(g108
(dp1356
g110
I150
sg111
F2.5
sg112
I2
sS'k'
I4
sg113
F0.5
sg114
I4
stp1357
a(g108
(dp1358
g110
I150
sg111
F2.5
sg112
I2
sS'k'
I4
sg113
F0.5
sg114
I5
stp1359
a(g108
(dp1360
g110
I150
sg111
F2.5
sg112
I2
sS'k'
I4
sg113
F0.5
sg114
I6
stp1361
a(g108
(dp1362
g110
I150
sg111
F2.5
sg112
I1
sS'k'
I5
sg113
F0.29999999999999999
sg114
I3
stp1363
a(g108
(dp1364
g110
I150
sg111
F2.5
sg112
I1
sS'k'
I5
sg113
F0.29999999999999999
sg114
I4
stp1365
a(g108
(dp1366
g110
I150
sg111
F2.5
sg112
I1
sS'k'
I5
sg113
F0.29999999999999999
sg114
I5
stp1367
a(g108
(dp1368
g110
I150
sg111
F2.5
sg112
I1
sS'k'
I5
sg113
F0.29999999999999999
sg114
I6
stp1369
a(g108
(dp1370
g110
I150
sg111
F2.5
sg112
I1
sS'k'
I5
sg113
F0.5
sg114
I3
stp1371
a(g108
(dp1372
g110
I150
sg111
F2.5
sg112
I1
sS'k'
I5
sg113
F0.5
sg114
I4
stp1373
a(g108
(dp1374
g110
I150
sg111
F2.5
sg112
I1
sS'k'
I5
sg113
F0.5
sg114
I5
stp1375
a(g108
(dp1376
g110
I150
sg111
F2.5
sg112
I1
sS'k'
I5
sg113
F0.5
sg114
I6
stp1377
a(g108
(dp1378
g110
I150
sg111
F2.5
sg112
I2
sS'k'
I5
sg113
F0.29999999999999999
sg114
I3
stp1379
a(g108
(dp1380
g110
I150
sg111
F2.5
sg112
I2
sS'k'
I5
sg113
F0.29999999999999999
sg114
I4
stp1381
a(g108
(dp1382
g110
I150
sg111
F2.5
sg112
I2
sS'k'
I5
sg113
F0.29999999999999999
sg114
I5
stp1383
a(g108
(dp1384
g110
I150
sg111
F2.5
sg112
I2
sS'k'
I5
sg113
F0.29999999999999999
sg114
I6
stp1385
a(g108
(dp1386
g110
I150
sg111
F2.5
sg112
I2
sS'k'
I5
sg113
F0.5
sg114
I3
stp1387
a(g108
(dp1388
g110
I150
sg111
F2.5
sg112
I2
sS'k'
I5
sg113
F0.5
sg114
I4
stp1389
a(g108
(dp1390
g110
I150
sg111
F2.5
sg112
I2
sS'k'
I5
sg113
F0.5
sg114
I5
stp1391
a(g108
(dp1392
g110
I150
sg111
F2.5
sg112
I2
sS'k'
I5
sg113
F0.5
sg114
I6
stp1393
a(g108
(dp1394
g110
I150
sg111
F2.5
sg112
I1
sS'k'
I6
sg113
F0.29999999999999999
sg114
I3
stp1395
a(g108
(dp1396
g110
I150
sg111
F2.5
sg112
I1
sS'k'
I6
sg113
F0.29999999999999999
sg114
I4
stp1397
a(g108
(dp1398
g110
I150
sg111
F2.5
sg112
I1
sS'k'
I6
sg113
F0.29999999999999999
sg114
I5
stp1399
a(g108
(dp1400
g110
I150
sg111
F2.5
sg112
I1
sS'k'
I6
sg113
F0.29999999999999999
sg114
I6
stp1401
a(g108
(dp1402
g110
I150
sg111
F2.5
sg112
I1
sS'k'
I6
sg113
F0.5
sg114
I3
stp1403
a(g108
(dp1404
g110
I150
sg111
F2.5
sg112
I1
sS'k'
I6
sg113
F0.5
sg114
I4
stp1405
a(g108
(dp1406
g110
I150
sg111
F2.5
sg112
I1
sS'k'
I6
sg113
F0.5
sg114
I5
stp1407
a(g108
(dp1408
g110
I150
sg111
F2.5
sg112
I1
sS'k'
I6
sg113
F0.5
sg114
I6
stp1409
a(g108
(dp1410
g110
I150
sg111
F2.5
sg112
I2
sS'k'
I6
sg113
F0.29999999999999999
sg114
I3
stp1411
a(g108
(dp1412
g110
I150
sg111
F2.5
sg112
I2
sS'k'
I6
sg113
F0.29999999999999999
sg114
I4
stp1413
a(g108
(dp1414
g110
I150
sg111
F2.5
sg112
I2
sS'k'
I6
sg113
F0.29999999999999999
sg114
I5
stp1415
a(g108
(dp1416
g110
I150
sg111
F2.5
sg112
I2
sS'k'
I6
sg113
F0.29999999999999999
sg114
I6
stp1417
a(g108
(dp1418
g110
I150
sg111
F2.5
sg112
I2
sS'k'
I6
sg113
F0.5
sg114
I3
stp1419
a(g108
(dp1420
g110
I150
sg111
F2.5
sg112
I2
sS'k'
I6
sg113
F0.5
sg114
I4
stp1421
a(g108
(dp1422
g110
I150
sg111
F2.5
sg112
I2
sS'k'
I6
sg113
F0.5
sg114
I5
stp1423
a(g108
(dp1424
g110
I150
sg111
F2.5
sg112
I2
sS'k'
I6
sg113
F0.5
sg114
I6
stp1425
a(g108
(dp1426
g110
I150
sg111
F2.5
sg112
I1
sS'k'
I7
sg113
F0.29999999999999999
sg114
I3
stp1427
a(g108
(dp1428
g110
I150
sg111
F2.5
sg112
I1
sS'k'
I7
sg113
F0.29999999999999999
sg114
I4
stp1429
a(g108
(dp1430
g110
I150
sg111
F2.5
sg112
I1
sS'k'
I7
sg113
F0.29999999999999999
sg114
I5
stp1431
a(g108
(dp1432
g110
I150
sg111
F2.5
sg112
I1
sS'k'
I7
sg113
F0.29999999999999999
sg114
I6
stp1433
a(g108
(dp1434
g110
I150
sg111
F2.5
sg112
I1
sS'k'
I7
sg113
F0.5
sg114
I3
stp1435
a(g108
(dp1436
g110
I150
sg111
F2.5
sg112
I1
sS'k'
I7
sg113
F0.5
sg114
I4
stp1437
a(g108
(dp1438
g110
I150
sg111
F2.5
sg112
I1
sS'k'
I7
sg113
F0.5
sg114
I5
stp1439
a(g108
(dp1440
g110
I150
sg111
F2.5
sg112
I1
sS'k'
I7
sg113
F0.5
sg114
I6
stp1441
a(g108
(dp1442
g110
I150
sg111
F2.5
sg112
I2
sS'k'
I7
sg113
F0.29999999999999999
sg114
I3
stp1443
a(g108
(dp1444
g110
I150
sg111
F2.5
sg112
I2
sS'k'
I7
sg113
F0.29999999999999999
sg114
I4
stp1445
a(g108
(dp1446
g110
I150
sg111
F2.5
sg112
I2
sS'k'
I7
sg113
F0.29999999999999999
sg114
I5
stp1447
a(g108
(dp1448
g110
I150
sg111
F2.5
sg112
I2
sS'k'
I7
sg113
F0.29999999999999999
sg114
I6
stp1449
a(g108
(dp1450
g110
I150
sg111
F2.5
sg112
I2
sS'k'
I7
sg113
F0.5
sg114
I3
stp1451
a(g108
(dp1452
g110
I150
sg111
F2.5
sg112
I2
sS'k'
I7
sg113
F0.5
sg114
I4
stp1453
a(g108
(dp1454
g110
I150
sg111
F2.5
sg112
I2
sS'k'
I7
sg113
F0.5
sg114
I5
stp1455
a(g108
(dp1456
g110
I150
sg111
F2.5
sg112
I2
sS'k'
I7
sg113
F0.5
sg114
I6
stp1457
a(g108
(dp1458
g110
I150
sg111
F2.5
sg112
I1
sS'k'
I8
sg113
F0.29999999999999999
sg114
I3
stp1459
a(g108
(dp1460
g110
I150
sg111
F2.5
sg112
I1
sS'k'
I8
sg113
F0.29999999999999999
sg114
I4
stp1461
a(g108
(dp1462
g110
I150
sg111
F2.5
sg112
I1
sS'k'
I8
sg113
F0.29999999999999999
sg114
I5
stp1463
a(g108
(dp1464
g110
I150
sg111
F2.5
sg112
I1
sS'k'
I8
sg113
F0.29999999999999999
sg114
I6
stp1465
a(g108
(dp1466
g110
I150
sg111
F2.5
sg112
I1
sS'k'
I8
sg113
F0.5
sg114
I3
stp1467
a(g108
(dp1468
g110
I150
sg111
F2.5
sg112
I1
sS'k'
I8
sg113
F0.5
sg114
I4
stp1469
a(g108
(dp1470
g110
I150
sg111
F2.5
sg112
I1
sS'k'
I8
sg113
F0.5
sg114
I5
stp1471
a(g108
(dp1472
g110
I150
sg111
F2.5
sg112
I1
sS'k'
I8
sg113
F0.5
sg114
I6
stp1473
a(g108
(dp1474
g110
I150
sg111
F2.5
sg112
I2
sS'k'
I8
sg113
F0.29999999999999999
sg114
I3
stp1475
a(g108
(dp1476
g110
I150
sg111
F2.5
sg112
I2
sS'k'
I8
sg113
F0.29999999999999999
sg114
I4
stp1477
a(g108
(dp1478
g110
I150
sg111
F2.5
sg112
I2
sS'k'
I8
sg113
F0.29999999999999999
sg114
I5
stp1479
a(g108
(dp1480
g110
I150
sg111
F2.5
sg112
I2
sS'k'
I8
sg113
F0.29999999999999999
sg114
I6
stp1481
a(g108
(dp1482
g110
I150
sg111
F2.5
sg112
I2
sS'k'
I8
sg113
F0.5
sg114
I3
stp1483
a(g108
(dp1484
g110
I150
sg111
F2.5
sg112
I2
sS'k'
I8
sg113
F0.5
sg114
I4
stp1485
a(g108
(dp1486
g110
I150
sg111
F2.5
sg112
I2
sS'k'
I8
sg113
F0.5
sg114
I5
stp1487
a(g108
(dp1488
g110
I150
sg111
F2.5
sg112
I2
sS'k'
I8
sg113
F0.5
sg114
I6
stp1489
a(g108
(dp1490
g110
I150
sg111
F2.5
sg112
I1
sS'k'
I9
sg113
F0.29999999999999999
sg114
I3
stp1491
a(g108
(dp1492
g110
I150
sg111
F2.5
sg112
I1
sS'k'
I9
sg113
F0.29999999999999999
sg114
I4
stp1493
a(g108
(dp1494
g110
I150
sg111
F2.5
sg112
I1
sS'k'
I9
sg113
F0.29999999999999999
sg114
I5
stp1495
a(g108
(dp1496
g110
I150
sg111
F2.5
sg112
I1
sS'k'
I9
sg113
F0.29999999999999999
sg114
I6
stp1497
a(g108
(dp1498
g110
I150
sg111
F2.5
sg112
I1
sS'k'
I9
sg113
F0.5
sg114
I3
stp1499
a(g108
(dp1500
g110
I150
sg111
F2.5
sg112
I1
sS'k'
I9
sg113
F0.5
sg114
I4
stp1501
a(g108
(dp1502
g110
I150
sg111
F2.5
sg112
I1
sS'k'
I9
sg113
F0.5
sg114
I5
stp1503
a(g108
(dp1504
g110
I150
sg111
F2.5
sg112
I1
sS'k'
I9
sg113
F0.5
sg114
I6
stp1505
a(g108
(dp1506
g110
I150
sg111
F2.5
sg112
I2
sS'k'
I9
sg113
F0.29999999999999999
sg114
I3
stp1507
a(g108
(dp1508
g110
I150
sg111
F2.5
sg112
I2
sS'k'
I9
sg113
F0.29999999999999999
sg114
I4
stp1509
a(g108
(dp1510
g110
I150
sg111
F2.5
sg112
I2
sS'k'
I9
sg113
F0.29999999999999999
sg114
I5
stp1511
a(g108
(dp1512
g110
I150
sg111
F2.5
sg112
I2
sS'k'
I9
sg113
F0.29999999999999999
sg114
I6
stp1513
a(g108
(dp1514
g110
I150
sg111
F2.5
sg112
I2
sS'k'
I9
sg113
F0.5
sg114
I3
stp1515
a(g108
(dp1516
g110
I150
sg111
F2.5
sg112
I2
sS'k'
I9
sg113
F0.5
sg114
I4
stp1517
a(g108
(dp1518
g110
I150
sg111
F2.5
sg112
I2
sS'k'
I9
sg113
F0.5
sg114
I5
stp1519
a(g108
(dp1520
g110
I150
sg111
F2.5
sg112
I2
sS'k'
I9
sg113
F0.5
sg114
I6
stp1521
a(g108
(dp1522
g110
I150
sg111
F2.5
sg112
I1
sS'k'
I10
sg113
F0.29999999999999999
sg114
I3
stp1523
a(g108
(dp1524
g110
I150
sg111
F2.5
sg112
I1
sS'k'
I10
sg113
F0.29999999999999999
sg114
I4
stp1525
a(g108
(dp1526
g110
I150
sg111
F2.5
sg112
I1
sS'k'
I10
sg113
F0.29999999999999999
sg114
I5
stp1527
a(g108
(dp1528
g110
I150
sg111
F2.5
sg112
I1
sS'k'
I10
sg113
F0.29999999999999999
sg114
I6
stp1529
a(g108
(dp1530
g110
I150
sg111
F2.5
sg112
I1
sS'k'
I10
sg113
F0.5
sg114
I3
stp1531
a(g108
(dp1532
g110
I150
sg111
F2.5
sg112
I1
sS'k'
I10
sg113
F0.5
sg114
I4
stp1533
a(g108
(dp1534
g110
I150
sg111
F2.5
sg112
I1
sS'k'
I10
sg113
F0.5
sg114
I5
stp1535
a(g108
(dp1536
g110
I150
sg111
F2.5
sg112
I1
sS'k'
I10
sg113
F0.5
sg114
I6
stp1537
a(g108
(dp1538
g110
I150
sg111
F2.5
sg112
I2
sS'k'
I10
sg113
F0.29999999999999999
sg114
I3
stp1539
a(g108
(dp1540
g110
I150
sg111
F2.5
sg112
I2
sS'k'
I10
sg113
F0.29999999999999999
sg114
I4
stp1541
a(g108
(dp1542
g110
I150
sg111
F2.5
sg112
I2
sS'k'
I10
sg113
F0.29999999999999999
sg114
I5
stp1543
a(g108
(dp1544
g110
I150
sg111
F2.5
sg112
I2
sS'k'
I10
sg113
F0.29999999999999999
sg114
I6
stp1545
a(g108
(dp1546
g110
I150
sg111
F2.5
sg112
I2
sS'k'
I10
sg113
F0.5
sg114
I3
stp1547
a(g108
(dp1548
g110
I150
sg111
F2.5
sg112
I2
sS'k'
I10
sg113
F0.5
sg114
I4
stp1549
a(g108
(dp1550
g110
I150
sg111
F2.5
sg112
I2
sS'k'
I10
sg113
F0.5
sg114
I5
stp1551
a(g108
(dp1552
g110
I150
sg111
F2.5
sg112
I2
sS'k'
I10
sg113
F0.5
sg114
I6
stp1553
a.